	.section .text
.LNDBG_TX:
# mark_description "Intel(R) C Intel(R) 64 Compiler Classic for applications running on Intel(R) 64, Version 2021.5.0 Build 2021";
# mark_description "1109_000000";
# mark_description "-O2 -g -c -S";
	.file "vecTest.cpp"
	.text
..TXTST0:
.L_2__routine_start_main_0:
# -- Begin  main
	.text
# mark_begin;
       .align    16,0x90
	.globl main
# --- main()
main:
..B1.1:                         # Preds ..B1.0
                                # Execution count [1.00e+00]
	.cfi_startproc
	.cfi_personality 0x3,__gxx_personality_v0
	.cfi_lsda 0xb, main$$LSDA
..___tag_value_main.2:
..L3:
                                                          #33.12
..LN0:
	.file   1 "vecTest.cpp"
	.loc    1  33  is_stmt 1
        pushq     %rbp                                          #33.12
	.cfi_def_cfa_offset 16
..LN1:
        movq      %rsp, %rbp                                    #33.12
	.cfi_def_cfa 6, 16
	.cfi_offset 6, -16
..LN2:
        andq      $-128, %rsp                                   #33.12
..LN3:
        pushq     %r13                                          #33.12
..LN4:
        pushq     %r14                                          #33.12
..LN5:
        pushq     %r15                                          #33.12
..LN6:
        pushq     %rbx                                          #33.12
..LN7:
        subq      $96, %rsp                                     #33.12
..LN8:
        movl      $3, %edi                                      #33.12
..LN9:
        xorl      %esi, %esi                                    #33.12
..LN10:
        call      __intel_new_feature_proc_init                 #33.12
	.cfi_escape 0x10, 0x03, 0x0e, 0x38, 0x1c, 0x0d, 0x80, 0xff, 0xff, 0xff, 0x1a, 0x0d, 0xe0, 0xff, 0xff, 0xff, 0x22
	.cfi_escape 0x10, 0x0d, 0x0e, 0x38, 0x1c, 0x0d, 0x80, 0xff, 0xff, 0xff, 0x1a, 0x0d, 0xf8, 0xff, 0xff, 0xff, 0x22
	.cfi_escape 0x10, 0x0e, 0x0e, 0x38, 0x1c, 0x0d, 0x80, 0xff, 0xff, 0xff, 0x1a, 0x0d, 0xf0, 0xff, 0xff, 0xff, 0x22
	.cfi_escape 0x10, 0x0f, 0x0e, 0x38, 0x1c, 0x0d, 0x80, 0xff, 0xff, 0xff, 0x1a, 0x0d, 0xe8, 0xff, 0xff, 0xff, 0x22
..LN11:
                                # LOE r12 r13
..B1.91:                        # Preds ..B1.1
                                # Execution count [1.00e+00]
..LN12:
        stmxcsr   (%rsp)                                        #33.12
..LN13:
	.loc    1  35  prologue_end  is_stmt 1
        movl      $200000000, %edi                              #35.14
..LN14:
	.loc    1  33  is_stmt 1
        orl       $32832, (%rsp)                                #33.12
..LN15:
        ldmxcsr   (%rsp)                                        #33.12
..___tag_value_main.12:
..LN16:
	.loc    1  35  is_stmt 1
#       operator new[](std::size_t)
        call      _Znam                                         #35.14
..___tag_value_main.13:
..LN17:
                                # LOE rax r12 r13
..B1.90:                        # Preds ..B1.91
                                # Execution count [1.00e+00]
..LN18:
        movq      %rax, %rbx                                    #35.14
..LN19:
                                # LOE rbx r12 r13
..B1.2:                         # Preds ..B1.90
                                # Execution count [1.00e+00]
..LN20:
	.loc    1  36  is_stmt 1
        movl      $200000000, %edi                              #36.14
..___tag_value_main.14:
..LN21:
#       operator new[](std::size_t)
        call      _Znam                                         #36.14
..___tag_value_main.15:
..LN22:
                                # LOE rax rbx r12 r13
..B1.92:                        # Preds ..B1.2
                                # Execution count [1.00e+00]
..LN23:
        movq      %rax, %r14                                    #36.14
..LN24:
                                # LOE rbx r12 r13 r14
..B1.3:                         # Preds ..B1.92
                                # Execution count [1.00e+00]
..LN25:
	.loc    1  37  is_stmt 1
        movl      $200000000, %edi                              #37.14
..___tag_value_main.16:
..LN26:
#       operator new[](std::size_t)
        call      _Znam                                         #37.14
..___tag_value_main.17:
..LN27:
                                # LOE rax rbx r12 r13 r14
..B1.93:                        # Preds ..B1.3
                                # Execution count [1.00e+00]
..LN28:
        movq      %rax, %r15                                    #37.14
..LN29:
                                # LOE rbx r12 r13 r14 r15
..B1.4:                         # Preds ..B1.93
                                # Execution count [1.00e+00]
..LN30:
	.loc    1  38  is_stmt 1
        movl      $200000000, %edi                              #38.9
..___tag_value_main.18:
..LN31:
#       operator new[](std::size_t)
        call      _Znam                                         #38.9
..___tag_value_main.19:
..LN32:
                                # LOE rax rbx r12 r13 r14 r15
..B1.94:                        # Preds ..B1.4
                                # Execution count [1.00e+00]
..LN33:
        movq      %rax, %rcx                                    #38.9
..LN34:
                                # LOE rcx rbx r12 r13 r14 r15
..B1.5:                         # Preds ..B1.94
                                # Execution count [0.00e+00]
..LN35:
	.loc    1  40  is_stmt 1
        movq      %r15, %rdx                                    #40.5
..LN36:
        andq      $15, %rdx                                     #40.5
..LN37:
        movq      %rdx, 24(%rsp)                                #40.5[spill]
..LN38:
        movl      %edx, %r11d                                   #40.5
..LN39:
        movl      %r11d, (%rsp)                                 #40.5[spill]
..LN40:
        testl     %edx, %edx                                    #40.5
..LN41:
        je        ..B1.10       # Prob 50%                      #40.5
..LN42:
                                # LOE rcx rbx r12 r13 r14 r15 edx r11d
..B1.6:                         # Preds ..B1.5
                                # Execution count [0.00e+00]
..LN43:
        testb     $3, %dl                                       #40.5
..LN44:
        jne       ..B1.71       # Prob 10%                      #40.5
..LN45:
                                # LOE rcx rbx r12 r13 r14 r15 edx
..B1.7:                         # Preds ..B1.6
                                # Execution count [5.00e+03]
..LN46:
        movl      %edx, %r11d                                   #40.5
..LN47:
        xorl      %r10d, %r10d                                  #40.5
..LN48:
        negl      %r11d                                         #40.5
..LN49:
	.loc    1  41  is_stmt 1
        movl      $1065353216, %r9d                             #41.16
..LN50:
	.loc    1  40  is_stmt 1
        addl      $16, %r11d                                    #40.5
..LN51:
	.loc    1  42  is_stmt 1
        movl      $1073741824, %r8d                             #42.16
..LN52:
	.loc    1  40  is_stmt 1
        shrl      $2, %r11d                                     #40.5
..LN53:
	.loc    1  43  is_stmt 1
        xorl      %esi, %esi                                    #43.16
..LN54:
	.loc    1  40  is_stmt 1
        movl      %r11d, %eax                                   #40.5
..LN55:
                                # LOE rax rcx rbx r10 r12 r14 r15 edx esi r8d r9d r11d
..B1.8:                         # Preds ..B1.8 ..B1.7
                                # Execution count [1.00e+06]
..L22:
                # optimization report
                # PEELED LOOP FOR VECTORIZATION
..LN56:
	.loc    1  41  is_stmt 1
        movl      %r9d, (%rbx,%r10,4)                           #41.9
..LN57:
	.loc    1  42  is_stmt 1
        movl      %r8d, (%r14,%r10,4)                           #42.9
..LN58:
	.loc    1  43  is_stmt 1
        movl      %esi, (%r15,%r10,4)                           #43.9
..LN59:
	.loc    1  40  is_stmt 1
        incq      %r10                                          #40.5
..LN60:
        cmpq      %rax, %r10                                    #40.5
..LN61:
        jb        ..B1.8        # Prob 99%                      #40.5
..LN62:
        jmp       ..B1.11       # Prob 100%                     #40.5
..LN63:
                                # LOE rax rcx rbx r10 r12 r14 r15 edx esi r8d r9d r11d
..B1.10:                        # Preds ..B1.5
                                # Execution count [0.00e+00]
..LN64:
	.loc    1  41  is_stmt 1
        movq      24(%rsp), %rax                                #41.9[spill]
..LN65:
                                # LOE rax rcx rbx r12 r13 r14 r15 edx r11d
..B1.11:                        # Preds ..B1.8 ..B1.10
                                # Execution count [1.00e+06]
..LN66:
	.loc    1  40  is_stmt 1
        negl      %r11d                                         #40.5
..LN67:
	.loc    1  42  is_stmt 1
        lea       (%r14,%rax,4), %rsi                           #42.9
..LN68:
	.loc    1  40  is_stmt 1
        andl      $3, %r11d                                     #40.5
..LN69:
	.loc    1  41  is_stmt 1
        movups    .L_2il0floatpacket.2(%rip), %xmm2             #41.16
..LN70:
	.loc    1  43  is_stmt 1
        pxor      %xmm0, %xmm0                                  #43.16
..LN71:
	.loc    1  40  is_stmt 1
        negq      %r11                                          #40.5
..LN72:
        addq      $50000000, %r11                               #40.5
..LN73:
	.loc    1  42  is_stmt 1
        movups    .L_2il0floatpacket.3(%rip), %xmm1             #42.16
..LN74:
	.loc    1  40  is_stmt 1
        testq     $15, %rsi                                     #40.5
..LN75:
        je        ..B1.16       # Prob 60%                      #40.5
..LN76:
                                # LOE rax rcx rbx r11 r12 r13 r14 r15 edx xmm0 xmm1 xmm2
..B1.13:                        # Preds ..B1.11 ..B1.13
                                # Execution count [1.00e+06]
..L24:
                # optimization report
                # LOOP WAS VECTORIZED
                # VECTORIZATION SPEEDUP COEFFECIENT 4.000000
                # ALTERNATE ALIGNMENT VECTOR LOOP
                # VECTOR TRIP COUNT IS KNOWN CONSTANT
                # VECTOR LENGTH 4
                # NORMALIZED VECTORIZATION OVERHEAD 1.500000
..LN77:
	.loc    1  41  is_stmt 1
        movups    %xmm2, (%rbx,%rax,4)                          #41.9
..LN78:
	.loc    1  42  is_stmt 1
        movups    %xmm1, (%r14,%rax,4)                          #42.9
..LN79:
	.loc    1  43  is_stmt 1
        movntps   %xmm0, (%r15,%rax,4)                          #43.9
..LN80:
	.loc    1  40  is_stmt 1
        addq      $4, %rax                                      #40.5
..LN81:
        cmpq      %r11, %rax                                    #40.5
..LN82:
        jb        ..B1.13       # Prob 99%                      #40.5
..LN83:
        jmp       ..B1.17       # Prob 100%                     #40.5
..LN84:
                                # LOE rax rcx rbx r11 r12 r13 r14 r15 edx xmm0 xmm1 xmm2
..B1.16:                        # Preds ..B1.11 ..B1.16
                                # Execution count [1.00e+06]
..L25:
                # optimization report
                # LOOP WAS VECTORIZED
                # VECTORIZATION HAS UNALIGNED MEMORY REFERENCES
                # VECTORIZATION SPEEDUP COEFFECIENT 4.000000
                # VECTOR TRIP COUNT IS KNOWN CONSTANT
                # VECTOR LENGTH 4
                # NORMALIZED VECTORIZATION OVERHEAD 1.500000
                # MAIN VECTOR TYPE: 32-bits floating point
..LN85:
	.loc    1  41  is_stmt 1
        movups    %xmm2, (%rbx,%rax,4)                          #41.9
..LN86:
	.loc    1  42  is_stmt 1
        movntps   %xmm1, (%r14,%rax,4)                          #42.9
..LN87:
	.loc    1  43  is_stmt 1
        movntps   %xmm0, (%r15,%rax,4)                          #43.9
..LN88:
	.loc    1  40  is_stmt 1
        addq      $4, %rax                                      #40.5
..LN89:
        cmpq      %r11, %rax                                    #40.5
..LN90:
        jb        ..B1.16       # Prob 99%                      #40.5
..LN91:
                                # LOE rax rcx rbx r11 r12 r13 r14 r15 edx xmm0 xmm1 xmm2
..B1.17:                        # Preds ..B1.13 ..B1.16
                                # Execution count [1.00e+06]
..LN92:
        mfence                                                  #40.5
..LN93:
                                # LOE rcx rbx r11 r12 r13 r14 r15 edx
..B1.18:                        # Preds ..B1.17 ..B1.71
                                # Execution count [0.00e+00]
..LN94:
        cmpq      $50000000, %r11                               #40.5
..LN95:
        jb        ..B1.85       # Prob 0%                       #40.5
..LN96:
                                # LOE rcx rbx r11 r12 r13 r14 r15 edx
..B1.19:                        # Preds ..B1.86 ..B1.18
                                # Execution count [0.00e+00]
..LN97:
	.loc    1  45  is_stmt 1
        movl      $4, %edi                                      #45.18
..LN98:
        movl      %edx, 32(%rsp)                                #45.18[spill]
..LN99:
        movq      %rcx, 16(%rsp)                                #45.18[spill]
..___tag_value_main.27:
..LN100:
#       operator new(std::size_t)
        call      _Znwm                                         #45.18
..___tag_value_main.28:
..LN101:
                                # LOE rax rbx r12 r13 r14 r15
..B1.95:                        # Preds ..B1.19
                                # Execution count [0.00e+00]
..LN102:
        movq      16(%rsp), %rcx                                #[spill]
..LN103:
        movl      32(%rsp), %edx                                #[spill]
..LN104:
        movq      %rax, 8(%rsp)                                 #45.18[spill]
..LN105:
                                # LOE rax rcx rbx r12 r13 r14 r15 edx
..B1.20:                        # Preds ..B1.95
                                # Execution count [0.00e+00]
..LN106:
	.loc    1  47  is_stmt 1
        movl      %edx, 32(%rsp)                                #47.24[spill]
..LN107:
        movq      %rcx, 16(%rsp)                                #47.24[spill]
..LN108:
	.loc    1  45  is_stmt 1
        movl      $50000000, (%rax)                             #45.18
..___tag_value_main.35:
..LN109:
	.loc    1  47  is_stmt 1
#       std::chrono::_V2::system_clock::now()
        call      _ZNSt6chrono3_V212system_clock3nowEv          #47.24
..___tag_value_main.36:
..LN110:
                                # LOE rax rbx r12 r13 r14 r15
..B1.96:                        # Preds ..B1.20
                                # Execution count [0.00e+00]
..LN111:
        movq      16(%rsp), %rcx                                #[spill]
..LN112:
        movl      32(%rsp), %edx                                #[spill]
..LN113:
        movq      %rax, 40(%rsp)                                #47.24
..LN114:
                                # LOE rcx rbx r12 r13 r14 r15 edx
..B1.21:                        # Preds ..B1.96
                                # Execution count [0.00e+00]
..LN115:
	.loc    1  13  is_stmt 1
        testl     %edx, %edx                                    #13.5
..LN116:
        je        ..B1.26       # Prob 50%                      #13.5
..LN117:
                                # LOE rcx rbx r12 r13 r14 r15 edx
..B1.22:                        # Preds ..B1.21
                                # Execution count [0.00e+00]
..LN118:
        testb     $3, %dl                                       #13.5
..LN119:
        jne       ..B1.72       # Prob 10%                      #13.5
..LN120:
                                # LOE rcx rbx r12 r13 r14 r15 edx
..B1.23:                        # Preds ..B1.22
                                # Execution count [0.00e+00]
..LN121:
        movl      %edx, %esi                                    #13.5
..LN122:
        xorl      %eax, %eax                                    #13.5
..LN123:
        negl      %esi                                          #13.5
..LN124:
        addl      $16, %esi                                     #13.5
..LN125:
        shrl      $2, %esi                                      #13.5
..LN126:
        movl      %esi, (%rsp)                                  #13.5[spill]
..LN127:
                                # LOE rax rcx rbx rsi r12 r13 r14 r15 edx
..B1.24:                        # Preds ..B1.24 ..B1.23
                                # Execution count [0.00e+00]
..L40:
                # optimization report
                # PEELED LOOP FOR VECTORIZATION
..LN128:
	.loc    1  14  is_stmt 1
        movss     (%rbx,%rax,4), %xmm0                          #14.16
..LN129:
        addss     (%r14,%rax,4), %xmm0                          #14.23
..LN130:
        movss     %xmm0, (%r15,%rax,4)                          #14.9
..LN131:
	.loc    1  13  is_stmt 1
        incq      %rax                                          #13.5
..LN132:
        cmpq      %rsi, %rax                                    #13.5
..LN133:
        jb        ..B1.24       # Prob 50%                      #13.5
..LN134:
        jmp       ..B1.27       # Prob 100%                     #13.5
..LN135:
                                # LOE rax rcx rbx rsi r12 r13 r14 r15 edx
..B1.26:                        # Preds ..B1.21
                                # Execution count [0.00e+00]
..LN136:
	.loc    1  14  is_stmt 1
        movq      24(%rsp), %rsi                                #14.9[spill]
..LN137:
                                # LOE rcx rbx rsi r12 r13 r14 r15 edx
..B1.27:                        # Preds ..B1.24 ..B1.26
                                # Execution count [0.00e+00]
..LN138:
	.loc    1  13  is_stmt 1
        movl      (%rsp), %eax                                  #13.5[spill]
..LN139:
	.loc    1  14  is_stmt 1
        lea       (%r14,%rsi,4), %r8                            #14.23
..LN140:
	.loc    1  13  is_stmt 1
        negl      %eax                                          #13.5
..LN141:
        andl      $3, %eax                                      #13.5
..LN142:
        negq      %rax                                          #13.5
..LN143:
        addq      $50000000, %rax                               #13.5
..LN144:
        testq     $15, %r8                                      #13.5
..LN145:
        je        ..B1.32       # Prob 60%                      #13.5
..LN146:
                                # LOE rax rcx rbx rsi r12 r13 r14 r15 edx
..B1.29:                        # Preds ..B1.27 ..B1.29
                                # Execution count [0.00e+00]
..L43:
                # optimization report
                # LOOP WAS VECTORIZED
                # VECTORIZATION SPEEDUP COEFFECIENT 5.335938
                # ALTERNATE ALIGNMENT VECTOR LOOP
                # VECTOR TRIP COUNT IS KNOWN CONSTANT
                # VECTOR LENGTH 4
                # NORMALIZED VECTORIZATION OVERHEAD 2.750000
..LN147:
	.loc    1  14  is_stmt 1
        movups    (%rbx,%rsi,4), %xmm1                          #14.16
..LN148:
        movups    (%r14,%rsi,4), %xmm0                          #14.23
..LN149:
        addps     %xmm0, %xmm1                                  #14.23
..LN150:
        movntps   %xmm1, (%r15,%rsi,4)                          #14.9
..LN151:
	.loc    1  13  is_stmt 1
        addq      $4, %rsi                                      #13.5
..LN152:
        cmpq      %rax, %rsi                                    #13.5
..LN153:
        jb        ..B1.29       # Prob 50%                      #13.5
..LN154:
        jmp       ..B1.33       # Prob 100%                     #13.5
..LN155:
                                # LOE rax rcx rbx rsi r12 r13 r14 r15 edx
..B1.32:                        # Preds ..B1.27 ..B1.32
                                # Execution count [0.00e+00]
..L44:
                # optimization report
                # LOOP WAS VECTORIZED
                # VECTORIZATION HAS UNALIGNED MEMORY REFERENCES
                # VECTORIZATION SPEEDUP COEFFECIENT 5.335938
                # VECTOR TRIP COUNT IS KNOWN CONSTANT
                # VECTOR LENGTH 4
                # NORMALIZED VECTORIZATION OVERHEAD 2.750000
                # MAIN VECTOR TYPE: 32-bits floating point
..LN156:
	.loc    1  14  is_stmt 1
        movups    (%rbx,%rsi,4), %xmm0                          #14.16
..LN157:
        addps     (%r14,%rsi,4), %xmm0                          #14.23
..LN158:
        movntps   %xmm0, (%r15,%rsi,4)                          #14.9
..LN159:
	.loc    1  13  is_stmt 1
        addq      $4, %rsi                                      #13.5
..LN160:
        cmpq      %rax, %rsi                                    #13.5
..LN161:
        jb        ..B1.32       # Prob 50%                      #13.5
..LN162:
                                # LOE rax rcx rbx rsi r12 r13 r14 r15 edx
..B1.33:                        # Preds ..B1.29 ..B1.32
                                # Execution count [0.00e+00]
..LN163:
        mfence                                                  #13.5
..LN164:
                                # LOE rax rcx rbx r12 r13 r14 r15 edx
..B1.34:                        # Preds ..B1.33 ..B1.72
                                # Execution count [0.00e+00]
..LN165:
        cmpq      $50000000, %rax                               #13.5
..LN166:
        jb        ..B1.83       # Prob 0%                       #13.5
..LN167:
                                # LOE rax rcx rbx r12 r13 r14 r15 edx
..B1.35:                        # Preds ..B1.83 ..B1.34
                                # Execution count [0.00e+00]
..LN168:
	.loc    1  49  is_stmt 1
        movl      %edx, 32(%rsp)                                #49.22[spill]
..LN169:
        movq      %rcx, 16(%rsp)                                #49.22[spill]
..___tag_value_main.46:
..LN170:
#       std::chrono::_V2::system_clock::now()
        call      _ZNSt6chrono3_V212system_clock3nowEv          #49.22
..___tag_value_main.47:
..LN171:
                                # LOE rax rbx r12 r13 r14 r15
..B1.97:                        # Preds ..B1.35
                                # Execution count [0.00e+00]
..LN172:
        movq      16(%rsp), %rcx                                #[spill]
..LN173:
        movl      32(%rsp), %edx                                #[spill]
..LN174:
        movq      %rax, 48(%rsp)                                #49.22
..LN175:
                                # LOE rcx rbx r12 r13 r14 r15 edx
..B1.36:                        # Preds ..B1.97
                                # Execution count [0.00e+00]
..LN176:
	.file   2 "/usr/include/c++/7.5.0/chrono"
	.loc    2  465  is_stmt 1
        movq      48(%rsp), %rax                                #465.14
..LN177:
	.loc    2  163  is_stmt 1
        pxor      %xmm0, %xmm0                                  #163.29
..LN178:
	.loc    2  465  is_stmt 1
        subq      40(%rsp), %rax                                #465.14
..LN179:
	.loc    2  163  is_stmt 1
        cvtsi2sdq %rax, %xmm0                                   #163.29
..LN180:
        divsd     .L_2il0floatpacket.4(%rip), %xmm0             #163.40
..LN181:
        movsd     %xmm0, (%rsp)                                 #163.40[spill]
..LN182:
	.loc    1  53  is_stmt 1
        movl      %edx, 32(%rsp)                                #53.25[spill]
..LN183:
        movq      %rcx, 16(%rsp)                                #53.25[spill]
..___tag_value_main.53:
..LN184:
#       std::chrono::_V2::system_clock::now()
        call      _ZNSt6chrono3_V212system_clock3nowEv          #53.25
..___tag_value_main.54:
..LN185:
                                # LOE rax rbx r12 r13 r14 r15
..B1.98:                        # Preds ..B1.36
                                # Execution count [0.00e+00]
..LN186:
        movq      16(%rsp), %rcx                                #[spill]
..LN187:
        movl      32(%rsp), %edx                                #[spill]
..LN188:
        movq      %rax, 40(%rsp)                                #53.25
..LN189:
                                # LOE rcx rbx r12 r13 r14 r15 edx
..B1.37:                        # Preds ..B1.98
                                # Execution count [0.00e+00]
..LN190:
	.loc    1  20  is_stmt 1
        testl     %edx, %edx                                    #20.5
..LN191:
        je        ..B1.43       # Prob 50%                      #20.5
..LN192:
                                # LOE rcx rbx r12 r13 r14 r15 edx
..B1.38:                        # Preds ..B1.37
                                # Execution count [0.00e+00]
..LN193:
        testb     $3, %dl                                       #20.5
..LN194:
        jne       ..B1.73       # Prob 10%                      #20.5
..LN195:
                                # LOE rcx rbx r12 r13 r14 r15 edx
..B1.39:                        # Preds ..B1.38
                                # Execution count [0.00e+00]
..LN196:
        negl      %edx                                          #20.5
..LN197:
        xorl      %eax, %eax                                    #20.5
..LN198:
        addl      $16, %edx                                     #20.5
..LN199:
        shrl      $2, %edx                                      #20.5
..LN200:
        movq      %rdx, 24(%rsp)                                #20.5[spill]
..LN201:
        movq      %rdx, %rsi                                    #20.5
..LN202:
                                # LOE rax rcx rbx rsi r12 r13 r14 r15 edx
..B1.40:                        # Preds ..B1.40 ..B1.39
                                # Execution count [0.00e+00]
..L59:
                # optimization report
                # PEELED LOOP FOR VECTORIZATION
..LN203:
	.loc    1  21  is_stmt 1
        movss     (%rbx,%rax,4), %xmm0                          #21.16
..LN204:
        movss     (%r14,%rax,4), %xmm1                          #21.23
..LN205:
        mulss     %xmm0, %xmm1                                  #21.23
..LN206:
        addss     %xmm0, %xmm1                                  #21.30
..LN207:
        movss     %xmm1, (%r15,%rax,4)                          #21.9
..LN208:
	.loc    1  20  is_stmt 1
        incq      %rax                                          #20.5
..LN209:
        cmpq      %rsi, %rax                                    #20.5
..LN210:
        jb        ..B1.40       # Prob 50%                      #20.5
..LN211:
                                # LOE rax rcx rbx rsi r12 r13 r14 r15 edx
..B1.41:                        # Preds ..B1.40
                                # Execution count [0.00e+00]
..LN212:
        movq      %rsi, 24(%rsp)                                #[spill]
..LN213:
                                # LOE rcx rbx r12 r13 r14 r15 edx
..B1.43:                        # Preds ..B1.37 ..B1.41
                                # Execution count [0.00e+00]
..LN214:
	.loc    1  21  is_stmt 1
        movq      24(%rsp), %rax                                #21.30[spill]
..LN215:
	.loc    1  20  is_stmt 1
        negl      %edx                                          #20.5
..LN216:
        andl      $3, %edx                                      #20.5
..LN217:
        negq      %rdx                                          #20.5
..LN218:
	.loc    1  21  is_stmt 1
        lea       (%rbx,%rax,4), %rsi                           #21.30
..LN219:
	.loc    1  20  is_stmt 1
        addq      $50000000, %rdx                               #20.5
..LN220:
        testq     $15, %rsi                                     #20.5
..LN221:
        je        ..B1.48       # Prob 60%                      #20.5
..LN222:
                                # LOE rax rdx rcx rbx r12 r13 r14 r15
..B1.45:                        # Preds ..B1.43 ..B1.45
                                # Execution count [0.00e+00]
..L62:
                # optimization report
                # LOOP WAS VECTORIZED
                # VECTORIZATION SPEEDUP COEFFECIENT 4.890625
                # ALTERNATE ALIGNMENT VECTOR LOOP
                # VECTOR TRIP COUNT IS KNOWN CONSTANT
                # VECTOR LENGTH 4
                # NORMALIZED VECTORIZATION OVERHEAD 1.875000
..LN223:
	.loc    1  21  is_stmt 1
        movups    (%rbx,%rax,4), %xmm0                          #21.16
..LN224:
        movups    (%r14,%rax,4), %xmm1                          #21.23
..LN225:
        mulps     %xmm0, %xmm1                                  #21.23
..LN226:
        addps     %xmm0, %xmm1                                  #21.30
..LN227:
        movntps   %xmm1, (%r15,%rax,4)                          #21.9
..LN228:
	.loc    1  20  is_stmt 1
        addq      $4, %rax                                      #20.5
..LN229:
        cmpq      %rdx, %rax                                    #20.5
..LN230:
        jb        ..B1.45       # Prob 50%                      #20.5
..LN231:
        jmp       ..B1.49       # Prob 100%                     #20.5
..LN232:
                                # LOE rax rdx rcx rbx r12 r13 r14 r15
..B1.48:                        # Preds ..B1.43 ..B1.48
                                # Execution count [0.00e+00]
..L63:
                # optimization report
                # LOOP WAS VECTORIZED
                # VECTORIZATION HAS UNALIGNED MEMORY REFERENCES
                # VECTORIZATION SPEEDUP COEFFECIENT 4.890625
                # VECTOR TRIP COUNT IS KNOWN CONSTANT
                # VECTOR LENGTH 4
                # NORMALIZED VECTORIZATION OVERHEAD 1.875000
                # MAIN VECTOR TYPE: 32-bits floating point
..LN233:
	.loc    1  21  is_stmt 1
        movups    (%r14,%rax,4), %xmm1                          #21.23
..LN234:
        movups    (%rbx,%rax,4), %xmm0                          #21.16
..LN235:
        mulps     %xmm0, %xmm1                                  #21.23
..LN236:
        addps     %xmm0, %xmm1                                  #21.30
..LN237:
        movntps   %xmm1, (%r15,%rax,4)                          #21.9
..LN238:
	.loc    1  20  is_stmt 1
        addq      $4, %rax                                      #20.5
..LN239:
        cmpq      %rdx, %rax                                    #20.5
..LN240:
        jb        ..B1.48       # Prob 50%                      #20.5
..LN241:
                                # LOE rax rdx rcx rbx r12 r13 r14 r15
..B1.49:                        # Preds ..B1.45 ..B1.48
                                # Execution count [0.00e+00]
..LN242:
        mfence                                                  #20.5
..LN243:
                                # LOE rdx rcx rbx r12 r13 r14 r15
..B1.50:                        # Preds ..B1.49 ..B1.73
                                # Execution count [0.00e+00]
..LN244:
        cmpq      $50000000, %rdx                               #20.5
..LN245:
        jb        ..B1.80       # Prob 0%                       #20.5
..LN246:
                                # LOE rdx rcx rbx r12 r13 r14 r15
..B1.51:                        # Preds ..B1.80 ..B1.50
                                # Execution count [0.00e+00]
..LN247:
	.loc    1  55  is_stmt 1
        movq      %rcx, 16(%rsp)                                #55.23[spill]
..___tag_value_main.64:
..LN248:
#       std::chrono::_V2::system_clock::now()
        call      _ZNSt6chrono3_V212system_clock3nowEv          #55.23
..___tag_value_main.65:
..LN249:
                                # LOE rax rbx r12 r13 r14 r15
..B1.99:                        # Preds ..B1.51
                                # Execution count [0.00e+00]
..LN250:
        movq      16(%rsp), %rcx                                #[spill]
..LN251:
        movq      %rax, 32(%rsp)                                #55.23
..LN252:
                                # LOE rcx rbx r12 r13 r14 r15
..B1.52:                        # Preds ..B1.99
                                # Execution count [0.00e+00]
..LN253:
	.loc    2  465  is_stmt 1
        movq      32(%rsp), %rax                                #465.14
..LN254:
	.loc    2  163  is_stmt 1
        pxor      %xmm0, %xmm0                                  #163.29
..LN255:
	.loc    2  465  is_stmt 1
        subq      40(%rsp), %rax                                #465.14
..LN256:
	.loc    2  163  is_stmt 1
        cvtsi2sdq %rax, %xmm0                                   #163.29
..LN257:
        divsd     .L_2il0floatpacket.4(%rip), %xmm0             #163.40
..LN258:
        movsd     %xmm0, 24(%rsp)                               #163.40[spill]
..LN259:
	.loc    1  58  is_stmt 1
        movq      %rcx, 16(%rsp)                                #58.26[spill]
..___tag_value_main.69:
..LN260:
#       std::chrono::_V2::system_clock::now()
        call      _ZNSt6chrono3_V212system_clock3nowEv          #58.26
..___tag_value_main.70:
..LN261:
                                # LOE rax rbx r12 r13 r14 r15
..B1.100:                       # Preds ..B1.52
                                # Execution count [0.00e+00]
..LN262:
        movq      16(%rsp), %rcx                                #[spill]
..LN263:
        movq      %rax, 32(%rsp)                                #58.26
..LN264:
                                # LOE rcx rbx r12 r13 r14 r15
..B1.53:                        # Preds ..B1.100
                                # Execution count [0.00e+00]
..LN265:
	.loc    1  27  is_stmt 1
        movq      8(%rsp), %rax                                 #27.25[spill]
..LN266:
        movslq    (%rax), %rdx                                  #27.25
..LN267:
        xorl      %eax, %eax                                    #27.5
..LN268:
        testq     %rdx, %rdx                                    #27.25
..LN269:
        jg        ..B1.75       # Prob 0%                       #27.25
..LN270:
                                # LOE rax rdx rcx rbx r12 r13 r14 r15
..B1.54:                        # Preds ..B1.76 ..B1.75 ..B1.53
                                # Execution count [0.00e+00]
..___tag_value_main.74:
..LN271:
	.loc    1  60  is_stmt 1
#       std::chrono::_V2::system_clock::now()
        call      _ZNSt6chrono3_V212system_clock3nowEv          #60.24
..___tag_value_main.75:
..LN272:
                                # LOE rax rbx r12 r13 r14 r15
..B1.101:                       # Preds ..B1.54
                                # Execution count [0.00e+00]
..LN273:
        movq      %rax, 8(%rsp)                                 #60.24
..LN274:
                                # LOE rbx r12 r13 r14 r15
..B1.55:                        # Preds ..B1.101
                                # Execution count [0.00e+00]
..LN275:
	.loc    2  465  is_stmt 1
        movq      8(%rsp), %rax                                 #465.14
..LN276:
	.loc    1  63  is_stmt 1
        movl      $_ZSt4cout, %edi                              #63.15
..LN277:
	.loc    2  465  is_stmt 1
        subq      32(%rsp), %rax                                #465.14
..LN278:
	.loc    1  63  is_stmt 1
        movl      $.L_2__STRING.0, %esi                         #63.15
..LN279:
	.loc    2  465  is_stmt 1
        movq      %rax, 16(%rsp)                                #465.14[spill]
..___tag_value_main.76:
..LN280:
	.loc    1  63  is_stmt 1
#       std::operator<<<std::char_traits<char>>(std::basic_ostream<char, std::char_traits<char>> &, const char *)
        call      _ZStlsISt11char_traitsIcEERSt13basic_ostreamIcT_ES5_PKc #63.15
..___tag_value_main.77:
..LN281:
                                # LOE rax rbx r12 r13 r14 r15
..B1.56:                        # Preds ..B1.55
                                # Execution count [0.00e+00]
..LN282:
        movsd     (%rsp), %xmm0                                 #63.43[spill]
..LN283:
        movq      %rax, %rdi                                    #63.43
..___tag_value_main.80:
..LN284:
#       std::basic_ostream<char, std::char_traits<char>>::operator<<(std::basic_ostream<char, std::char_traits<char>> *, double)
        call      _ZNSolsEd                                     #63.43
..___tag_value_main.81:
..LN285:
                                # LOE rax rbx r12 r13 r14 r15
..B1.57:                        # Preds ..B1.56
                                # Execution count [0.00e+00]
..LN286:
        movl      $.L_2__STRING.1, %esi                         #63.69
..LN287:
        movq      %rax, %rdi                                    #63.69
..___tag_value_main.82:
..LN288:
#       std::operator<<<std::char_traits<char>>(std::basic_ostream<char, std::char_traits<char>> &, const char *)
        call      _ZStlsISt11char_traitsIcEERSt13basic_ostreamIcT_ES5_PKc #63.69
..___tag_value_main.83:
..LN289:
                                # LOE rbx r12 r13 r14 r15
..B1.58:                        # Preds ..B1.57
                                # Execution count [0.00e+00]
..LN290:
	.loc    1  64  is_stmt 1
        movl      $.L_2__STRING.2, %esi                         #64.15
..LN291:
        movl      $_ZSt4cout, %edi                              #64.15
..___tag_value_main.84:
..LN292:
#       std::operator<<<std::char_traits<char>>(std::basic_ostream<char, std::char_traits<char>> &, const char *)
        call      _ZStlsISt11char_traitsIcEERSt13basic_ostreamIcT_ES5_PKc #64.15
..___tag_value_main.85:
..LN293:
                                # LOE rax rbx r12 r13 r14 r15
..B1.59:                        # Preds ..B1.58
                                # Execution count [0.00e+00]
..LN294:
        movsd     24(%rsp), %xmm0                               #64.44[spill]
..LN295:
        movq      %rax, %rdi                                    #64.44
..___tag_value_main.87:
..LN296:
#       std::basic_ostream<char, std::char_traits<char>>::operator<<(std::basic_ostream<char, std::char_traits<char>> *, double)
        call      _ZNSolsEd                                     #64.44
..___tag_value_main.88:
..LN297:
                                # LOE rax rbx r12 r13 r14 r15
..B1.60:                        # Preds ..B1.59
                                # Execution count [0.00e+00]
..LN298:
        movq      %rax, %rdi                                    #64.71
..LN299:
        movl      $.L_2__STRING.1, %esi                         #64.71
..___tag_value_main.89:
..LN300:
#       std::operator<<<std::char_traits<char>>(std::basic_ostream<char, std::char_traits<char>> &, const char *)
        call      _ZStlsISt11char_traitsIcEERSt13basic_ostreamIcT_ES5_PKc #64.71
..___tag_value_main.90:
..LN301:
                                # LOE rbx r12 r13 r14 r15
..B1.61:                        # Preds ..B1.60
                                # Execution count [0.00e+00]
..LN302:
	.loc    1  65  is_stmt 1
        movl      $_ZSt4cout, %edi                              #65.15
..LN303:
        movl      $.L_2__STRING.2, %esi                         #65.15
..___tag_value_main.91:
..LN304:
#       std::operator<<<std::char_traits<char>>(std::basic_ostream<char, std::char_traits<char>> &, const char *)
        call      _ZStlsISt11char_traitsIcEERSt13basic_ostreamIcT_ES5_PKc #65.15
..___tag_value_main.92:
..LN305:
                                # LOE rax rbx r12 r13 r14 r15
..B1.62:                        # Preds ..B1.61
                                # Execution count [0.00e+00]
..LN306:
        pxor      %xmm0, %xmm0                                  #65.44
..LN307:
        movq      %rax, %rdi                                    #65.44
..LN308:
        cvtsi2sdq 16(%rsp), %xmm0                               #65.44[spill]
..LN309:
        divsd     .L_2il0floatpacket.4(%rip), %xmm0             #65.44
..___tag_value_main.94:
..LN310:
#       std::basic_ostream<char, std::char_traits<char>>::operator<<(std::basic_ostream<char, std::char_traits<char>> *, double)
        call      _ZNSolsEd                                     #65.44
..___tag_value_main.95:
..LN311:
                                # LOE rax rbx r12 r13 r14 r15
..B1.63:                        # Preds ..B1.62
                                # Execution count [0.00e+00]
..LN312:
        movq      %rax, %rdi                                    #65.72
..LN313:
        movl      $.L_2__STRING.1, %esi                         #65.72
..___tag_value_main.96:
..LN314:
#       std::operator<<<std::char_traits<char>>(std::basic_ostream<char, std::char_traits<char>> &, const char *)
        call      _ZStlsISt11char_traitsIcEERSt13basic_ostreamIcT_ES5_PKc #65.72
..___tag_value_main.97:
..LN315:
                                # LOE rbx r12 r13 r14 r15
..B1.64:                        # Preds ..B1.63
                                # Execution count [0.00e+00]
..LN316:
	.loc    1  67  is_stmt 1
        testq     %rbx, %rbx                                    #67.14
..LN317:
        je        ..B1.66       # Prob 32%                      #67.14
..LN318:
                                # LOE rbx r12 r13 r14 r15
..B1.65:                        # Preds ..B1.64
                                # Execution count [0.00e+00]
..LN319:
        movq      %rbx, %rdi                                    #67.5
..LN320:
#       operator delete[](void *)
        call      _ZdaPv                                        #67.5
..LN321:
                                # LOE r12 r13 r14 r15
..B1.66:                        # Preds ..B1.65 ..B1.64
                                # Execution count [0.00e+00]
..LN322:
	.loc    1  68  is_stmt 1
        testq     %r14, %r14                                    #68.14
..LN323:
        je        ..B1.68       # Prob 32%                      #68.14
..LN324:
                                # LOE r12 r13 r14 r15
..B1.67:                        # Preds ..B1.66
                                # Execution count [0.00e+00]
..LN325:
        movq      %r14, %rdi                                    #68.5
..LN326:
#       operator delete[](void *)
        call      _ZdaPv                                        #68.5
..LN327:
                                # LOE r12 r13 r15
..B1.68:                        # Preds ..B1.67 ..B1.66
                                # Execution count [0.00e+00]
..LN328:
	.loc    1  69  is_stmt 1
        testq     %r15, %r15                                    #69.14
..LN329:
        je        ..B1.70       # Prob 32%                      #69.14
..LN330:
                                # LOE r12 r13 r15
..B1.69:                        # Preds ..B1.68
                                # Execution count [0.00e+00]
..LN331:
        movq      %r15, %rdi                                    #69.5
..LN332:
#       operator delete[](void *)
        call      _ZdaPv                                        #69.5
..LN333:
                                # LOE r12 r13
..B1.70:                        # Preds ..B1.69 ..B1.68
                                # Execution count [0.00e+00]
..LN334:
	.loc    1  71  is_stmt 1
        xorl      %eax, %eax                                    #71.12
..LN335:
	.loc    1  71  epilogue_begin  is_stmt 1
        addq      $96, %rsp                                     #71.12
	.cfi_restore 3
..LN336:
        popq      %rbx                                          #71.12
	.cfi_restore 15
..LN337:
        popq      %r15                                          #71.12
	.cfi_restore 14
..LN338:
        popq      %r14                                          #71.12
	.cfi_restore 13
..LN339:
        popq      %r13                                          #71.12
..LN340:
        movq      %rbp, %rsp                                    #71.12
..LN341:
        popq      %rbp                                          #71.12
	.cfi_def_cfa 7, 8
	.cfi_restore 6
..LN342:
        ret                                                     #71.12
	.cfi_def_cfa 6, 16
	.cfi_escape 0x10, 0x03, 0x0e, 0x38, 0x1c, 0x0d, 0x80, 0xff, 0xff, 0xff, 0x1a, 0x0d, 0xe0, 0xff, 0xff, 0xff, 0x22
	.cfi_offset 6, -16
	.cfi_escape 0x10, 0x0d, 0x0e, 0x38, 0x1c, 0x0d, 0x80, 0xff, 0xff, 0xff, 0x1a, 0x0d, 0xf8, 0xff, 0xff, 0xff, 0x22
	.cfi_escape 0x10, 0x0e, 0x0e, 0x38, 0x1c, 0x0d, 0x80, 0xff, 0xff, 0xff, 0x1a, 0x0d, 0xf0, 0xff, 0xff, 0xff, 0x22
	.cfi_escape 0x10, 0x0f, 0x0e, 0x38, 0x1c, 0x0d, 0x80, 0xff, 0xff, 0xff, 0x1a, 0x0d, 0xe8, 0xff, 0xff, 0xff, 0x22
..LN343:
                                # LOE
..B1.71:                        # Preds ..B1.6
                                # Execution count [0.00e+00]: Infreq
..LN344:
	.loc    1  40  is_stmt 1
        xorl      %r11d, %r11d                                  #40.5
..LN345:
        jmp       ..B1.18       # Prob 100%                     #40.5
..LN346:
                                # LOE rcx rbx r11 r12 r13 r14 r15 edx
..B1.72:                        # Preds ..B1.22
                                # Execution count [0.00e+00]: Infreq
..LN347:
	.loc    1  13  is_stmt 1
        xorl      %eax, %eax                                    #13.5
..LN348:
        jmp       ..B1.34       # Prob 100%                     #13.5
..LN349:
                                # LOE rax rcx rbx r12 r13 r14 r15 edx
..B1.73:                        # Preds ..B1.38
                                # Execution count [0.00e+00]: Infreq
..LN350:
	.loc    1  20  is_stmt 1
        xorl      %edx, %edx                                    #20.5
..LN351:
        jmp       ..B1.50       # Prob 100%                     #20.5
..LN352:
                                # LOE rdx rcx rbx r12 r13 r14 r15
..B1.75:                        # Preds ..B1.53 ..B1.76
                                # Execution count [0.00e+00]: Infreq
..L111:
                # optimization report
                # %s was not vectorized: loop with multiple exits cannot be vectorized unless it meets search loop idiom criteria
                # VECTOR TRIP COUNT IS ESTIMATED CONSTANT
..LN353:
	.loc    1  27  is_stmt 1
..LN354:
	.loc    1  28  is_stmt 1
        movl      %eax, %esi                                    #28.9
..LN355:
        addl      (%rcx), %esi                                  #28.9
..LN356:
        movl      %esi, (%rcx)                                  #28.9
..LN357:
	.loc    1  29  is_stmt 1
        cmpl      $9999987, %esi                                #29.16
..LN358:
        je        ..B1.54       # Prob 20%                      #29.16
..LN359:
                                # LOE rax rdx rcx rbx r12 r13 r14 r15
..B1.76:                        # Preds ..B1.75
                                # Execution count [0.00e+00]: Infreq
..LN360:
	.loc    1  27  is_stmt 1
        incq      %rax                                          #27.5
..LN361:
        addq      $4, %rcx                                      #27.5
..LN362:
        cmpq      %rdx, %rax                                    #27.5
..LN363:
        jb        ..B1.75       # Prob 50%                      #27.5
..LN364:
        jmp       ..B1.54       # Prob 100%                     #27.5
..LN365:
                                # LOE rax rdx rcx rbx r12 r13 r14 r15
..B1.80:                        # Preds ..B1.50 ..B1.80
                                # Execution count [0.00e+00]: Infreq
..L112:
                # optimization report
                # REMAINDER LOOP FOR VECTORIZATION
..LN366:
	.loc    1  20  is_stmt 1
..LN367:
	.loc    1  21  is_stmt 1
        movss     (%rbx,%rdx,4), %xmm0                          #21.16
..LN368:
        movss     (%r14,%rdx,4), %xmm1                          #21.23
..LN369:
        mulss     %xmm0, %xmm1                                  #21.23
..LN370:
        addss     %xmm0, %xmm1                                  #21.30
..LN371:
        movss     %xmm1, (%r15,%rdx,4)                          #21.9
..LN372:
	.loc    1  20  is_stmt 1
        incq      %rdx                                          #20.5
..LN373:
        cmpq      $50000000, %rdx                               #20.5
..LN374:
        jb        ..B1.80       # Prob 50%                      #20.5
..LN375:
        jmp       ..B1.51       # Prob 100%                     #20.5
..LN376:
                                # LOE rdx rcx rbx r12 r13 r14 r15
..B1.83:                        # Preds ..B1.34 ..B1.83
                                # Execution count [0.00e+00]: Infreq
..L113:
                # optimization report
                # REMAINDER LOOP FOR VECTORIZATION
..LN377:
	.loc    1  13  is_stmt 1
..LN378:
	.loc    1  14  is_stmt 1
        movss     (%rbx,%rax,4), %xmm0                          #14.16
..LN379:
        addss     (%r14,%rax,4), %xmm0                          #14.23
..LN380:
        movss     %xmm0, (%r15,%rax,4)                          #14.9
..LN381:
	.loc    1  13  is_stmt 1
        incq      %rax                                          #13.5
..LN382:
        cmpq      $50000000, %rax                               #13.5
..LN383:
        jb        ..B1.83       # Prob 50%                      #13.5
..LN384:
        jmp       ..B1.35       # Prob 100%                     #13.5
..LN385:
                                # LOE rax rcx rbx r12 r13 r14 r15 edx
..B1.85:                        # Preds ..B1.18
                                # Execution count [5.00e+03]: Infreq
..LN386:
	.loc    1  41  is_stmt 1
        movl      $1065353216, %r8d                             #41.16
..LN387:
	.loc    1  42  is_stmt 1
        movl      $1073741824, %esi                             #42.16
..LN388:
	.loc    1  43  is_stmt 1
        xorl      %eax, %eax                                    #43.16
..LN389:
                                # LOE rcx rbx r11 r12 r13 r14 r15 eax edx esi r8d
..B1.86:                        # Preds ..B1.86 ..B1.85
                                # Execution count [1.00e+06]: Infreq
..L114:
                # optimization report
                # REMAINDER LOOP FOR VECTORIZATION
..LN390:
	.loc    1  40  is_stmt 1
..LN391:
	.loc    1  41  is_stmt 1
        movl      %r8d, (%rbx,%r11,4)                           #41.9
..LN392:
	.loc    1  42  is_stmt 1
        movl      %esi, (%r14,%r11,4)                           #42.9
..LN393:
	.loc    1  43  is_stmt 1
        movl      %eax, (%r15,%r11,4)                           #43.9
..LN394:
	.loc    1  40  is_stmt 1
        incq      %r11                                          #40.5
..LN395:
        cmpq      $50000000, %r11                               #40.5
..LN396:
        jb        ..B1.86       # Prob 99%                      #40.5
..LN397:
        jmp       ..B1.19       # Prob 100%                     #40.5
        .align    16,0x90
..LN398:
                                # LOE rcx rbx r11 r12 r13 r14 r15 eax edx esi r8d
..LN399:
	.cfi_endproc
# mark_end;
	.type	main,@function
	.size	main,.-main
..LNmain.400:
.LNmain:
	.section .gcc_except_table, "a"
	.align 4
main$$LSDA:
	.byte	255
	.byte	0
	.uleb128	..___tag_value_main.121 - ..___tag_value_main.120
..___tag_value_main.120:
	.byte	1
	.uleb128	..___tag_value_main.119 - ..___tag_value_main.118
..___tag_value_main.118:
	.uleb128	..___tag_value_main.12 - ..___tag_value_main.2
	.uleb128	..___tag_value_main.97 - ..___tag_value_main.12
	.byte	0
	.byte	0
..___tag_value_main.119:
	.long	0x00000000,0x00000000
..___tag_value_main.121:
	.data
	.file   3 "/usr/include/x86_64-linux-gnu/c++/7.5.0/bits/c++config.h"
	.file   4 "/usr/include/c++/7.5.0/bits/exception_ptr.h"
	.file   5 "/usr/include/c++/7.5.0/type_traits"
	.file   6 "/usr/include/c++/7.5.0/debug/debug.h"
	.file   7 "/usr/include/c++/7.5.0/bits/basic_string.h"
	.file   8 "/usr/include/c++/7.5.0/system_error"
	.file   9 "/usr/include/c++/7.5.0/bits/parse_numbers.h"
	.file   10 "/usr/include/c++/7.5.0/bits/predefined_ops.h"
	.file   11 "/usr/include/x86_64-linux-gnu/bits/stdint-intn.h"
	.file   12 "/usr/include/x86_64-linux-gnu/bits/types.h"
	.file   13 "/usr/include/c++/7.5.0/ratio"
	.file   14 "/usr/include/stdint.h"
	.file   15 "/usr/include/x86_64-linux-gnu/bits/types/time_t.h"
# -- End  main
	.section .text._ZNSt11char_traitsIcE6lengthEPKc, "xaG",@progbits,_ZNSt11char_traitsIcE6lengthEPKc,comdat
..TXTST1:
.L_2__routine_start__ZNSt11char_traitsIcE6lengthEPKc_1:
# -- Begin  _ZNSt11char_traitsIcE6lengthEPKc
	.section .text._ZNSt11char_traitsIcE6lengthEPKc, "xaG",@progbits,_ZNSt11char_traitsIcE6lengthEPKc,comdat
# mark_begin;
       .align    16,0x90
	.weak _ZNSt11char_traitsIcE6lengthEPKc
# --- std::char_traits<char>::length(const std::char_traits<char>::char_type *)
_ZNSt11char_traitsIcE6lengthEPKc:
# parameter 1(__s): %rdi
..B2.1:                         # Preds ..B2.0
                                # Execution count [1.00e+00]
	.cfi_startproc
	.cfi_personality 0x3,__gxx_personality_v0
..___tag_value__ZNSt11char_traitsIcE6lengthEPKc.123:
..L124:
                                                        #315.7
..LN401:
	.file   16 "/usr/include/c++/7.5.0/bits/char_traits.h"
	.loc    16  315  is_stmt 1
        pushq     %rsi                                          #315.7
	.cfi_def_cfa_offset 16
..LN402:
	.loc    16  320  prologue_end  is_stmt 1
        movq      %rdi, %rdx                                    #320.9
..LN403:
        movq      %rdx, %rcx                                    #320.9
..LN404:
        andq      $-16, %rdx                                    #320.9
..LN405:
        pxor      %xmm0, %xmm0                                  #320.9
..LN406:
        pcmpeqb   (%rdx), %xmm0                                 #320.9
..LN407:
        pmovmskb  %xmm0, %eax                                   #320.9
..LN408:
        andl      $15, %ecx                                     #320.9
..LN409:
        shrl      %cl, %eax                                     #320.9
..LN410:
        bsf       %eax, %eax                                    #320.9
..LN411:
        jne       ..L127        # Prob 60%                      #320.9
..LN412:
        movq      %rdx, %rax                                    #320.9
..LN413:
        addq      %rcx, %rdx                                    #320.9
..LN414:
        call      *__intel_sse2_strlen@GOTPCREL(%rip)           #320.9
..L127:                                                         #
..LN415:
                                # LOE rax rbx rbp r12 r13 r14 r15
..B2.4:                         # Preds ..B2.1
                                # Execution count [1.00e+00]
..LN416:
	.loc    16  320  epilogue_begin  is_stmt 1
        popq      %rcx                                          #320.9
	.cfi_def_cfa_offset 8
..LN417:
        ret                                                     #320.9
        .align    16,0x90
..LN418:
                                # LOE
..LN419:
	.cfi_endproc
# mark_end;
	.type	_ZNSt11char_traitsIcE6lengthEPKc,@function
	.size	_ZNSt11char_traitsIcE6lengthEPKc,.-_ZNSt11char_traitsIcE6lengthEPKc
..LN_ZNSt11char_traitsIcE6lengthEPKc.420:
.LN_ZNSt11char_traitsIcE6lengthEPKc:
	.data
	.file   17 "/usr/include/c++/7.5.0/bits/postypes.h"
	.file   18 "/usr/include/x86_64-linux-gnu/bits/types/mbstate_t.h"
	.file   19 "/usr/include/x86_64-linux-gnu/bits/types/__mbstate_t.h"
# -- End  _ZNSt11char_traitsIcE6lengthEPKc
	.text
.L_2__routine_start__Z10simpleLoopPfS_S__2:
# -- Begin  _Z10simpleLoopPfS_S_
	.text
# mark_begin;
       .align    16,0x90
	.globl _Z10simpleLoopPfS_S_
# --- simpleLoop(float *, float *, float *)
_Z10simpleLoopPfS_S_:
# parameter 1(a): %rdi
# parameter 2(b): %rsi
# parameter 3(c): %rdx
..B3.1:                         # Preds ..B3.0
                                # Execution count [0.00e+00]
	.cfi_startproc
	.cfi_personality 0x3,__gxx_personality_v0
..___tag_value__Z10simpleLoopPfS_S_.133:
..L134:
                                                        #12.47
..LN421:
	.loc    1  12  prologue_end  is_stmt 1
..LN422:
	.loc    1  14  is_stmt 1
        movq      %rdx, %rax                                    #14.16
..LN423:
        subq      %rdi, %rax                                    #14.16
..LN424:
	.loc    1  13  is_stmt 1
        cmpq      $200000000, %rax                              #13.5
..LN425:
        jge       ..B3.3        # Prob 50%                      #13.5
..LN426:
                                # LOE rax rdx rbx rbp rsi rdi r12 r13 r14 r15
..B3.2:                         # Preds ..B3.1
                                # Execution count [0.00e+00]
..LN427:
	.loc    1  14  is_stmt 1
        negq      %rax                                          #14.9
..LN428:
	.loc    1  13  is_stmt 1
        cmpq      $200000000, %rax                              #13.5
..LN429:
        jl        ..B3.19       # Prob 50%                      #13.5
..LN430:
                                # LOE rdx rbx rbp rsi rdi r12 r13 r14 r15
..B3.3:                         # Preds ..B3.2 ..B3.1
                                # Execution count [0.00e+00]
..LN431:
	.loc    1  14  is_stmt 1
        movq      %rdx, %rax                                    #14.23
..LN432:
        subq      %rsi, %rax                                    #14.23
..LN433:
	.loc    1  13  is_stmt 1
        cmpq      $200000000, %rax                              #13.5
..LN434:
        jge       ..B3.5        # Prob 50%                      #13.5
..LN435:
                                # LOE rax rdx rbx rbp rsi rdi r12 r13 r14 r15
..B3.4:                         # Preds ..B3.3
                                # Execution count [0.00e+00]
..LN436:
	.loc    1  14  is_stmt 1
        negq      %rax                                          #14.9
..LN437:
	.loc    1  13  is_stmt 1
        cmpq      $200000000, %rax                              #13.5
..LN438:
        jl        ..B3.19       # Prob 50%                      #13.5
..LN439:
                                # LOE rdx rbx rbp rsi rdi r12 r13 r14 r15
..B3.5:                         # Preds ..B3.3 ..B3.4
                                # Execution count [0.00e+00]
..LN440:
        movq      %rdx, %rcx                                    #13.5
..LN441:
        andq      $15, %rcx                                     #13.5
..LN442:
        testl     %ecx, %ecx                                    #13.5
..LN443:
        je        ..B3.10       # Prob 50%                      #13.5
..LN444:
                                # LOE rdx rbx rbp rsi rdi r12 r13 r14 r15 ecx
..B3.6:                         # Preds ..B3.5
                                # Execution count [0.00e+00]
..LN445:
        testb     $3, %cl                                       #13.5
..LN446:
        jne       ..B3.23       # Prob 10%                      #13.5
..LN447:
                                # LOE rdx rbx rbp rsi rdi r12 r13 r14 r15 ecx
..B3.7:                         # Preds ..B3.6
                                # Execution count [2.50e+03]
..LN448:
        negl      %ecx                                          #13.5
..LN449:
        xorl      %eax, %eax                                    #13.5
..LN450:
        addl      $16, %ecx                                     #13.5
..LN451:
        shrl      $2, %ecx                                      #13.5
..LN452:
        movl      %ecx, %r8d                                    #13.5
..LN453:
                                # LOE rax rdx rbx rbp rsi rdi r8 r12 r13 r14 r15 ecx
..B3.8:                         # Preds ..B3.8 ..B3.7
                                # Execution count [5.00e+05]
..L136:
                # optimization report
                # MULTIVERSIONED FOR DATA DEPENDENCE, VER 1
                # PEELED LOOP FOR VECTORIZATION
..LN454:
	.loc    1  14  is_stmt 1
        movss     (%rdi,%rax,4), %xmm0                          #14.16
..LN455:
        addss     (%rsi,%rax,4), %xmm0                          #14.23
..LN456:
        movss     %xmm0, (%rdx,%rax,4)                          #14.9
..LN457:
	.loc    1  13  is_stmt 1
        incq      %rax                                          #13.5
..LN458:
        cmpq      %r8, %rax                                     #13.5
..LN459:
        jb        ..B3.8        # Prob 99%                      #13.5
..LN460:
        jmp       ..B3.11       # Prob 100%                     #13.5
..LN461:
                                # LOE rax rdx rbx rbp rsi rdi r8 r12 r13 r14 r15 ecx
..B3.10:                        # Preds ..B3.5
                                # Execution count [0.00e+00]
..LN462:
	.loc    1  14  is_stmt 1
        xorl      %r8d, %r8d                                    #14.9
..LN463:
                                # LOE rdx rbx rbp rsi rdi r8 r12 r13 r14 r15 ecx
..B3.11:                        # Preds ..B3.8 ..B3.10
                                # Execution count [5.00e+05]
..LN464:
	.loc    1  13  is_stmt 1
        negl      %ecx                                          #13.5
..LN465:
	.loc    1  14  is_stmt 1
        lea       (%rsi,%r8,4), %rax                            #14.23
..LN466:
	.loc    1  13  is_stmt 1
        andl      $3, %ecx                                      #13.5
..LN467:
        negl      %ecx                                          #13.5
..LN468:
        addl      $50000000, %ecx                               #13.5
..LN469:
        testq     $15, %rax                                     #13.5
..LN470:
        je        ..B3.16       # Prob 60%                      #13.5
..LN471:
                                # LOE rdx rcx rbx rbp rsi rdi r8 r12 r13 r14 r15
..B3.12:                        # Preds ..B3.11
                                # Execution count [2.50e+03]
..LN472:
        movl      %ecx, %ecx                                    #13.5
..LN473:
                                # LOE rdx rcx rbx rbp rsi rdi r8 r12 r13 r14 r15
..B3.13:                        # Preds ..B3.13 ..B3.12
                                # Execution count [5.00e+05]
..L137:
                # optimization report
                # MULTIVERSIONED FOR DATA DEPENDENCE, VER 1
                # LOOP WAS VECTORIZED
                # VECTORIZATION SPEEDUP COEFFECIENT 5.335938
                # ALTERNATE ALIGNMENT VECTOR LOOP
                # VECTOR TRIP COUNT IS KNOWN CONSTANT
                # VECTOR LENGTH 4
                # NORMALIZED VECTORIZATION OVERHEAD 2.750000
                # DEPENDENCY ANALYSIS WAS IGNORED
..LN474:
	.loc    1  14  is_stmt 1
        movups    (%rdi,%r8,4), %xmm1                           #14.16
..LN475:
        movups    (%rsi,%r8,4), %xmm0                           #14.23
..LN476:
        addps     %xmm0, %xmm1                                  #14.23
..LN477:
        movups    %xmm1, (%rdx,%r8,4)                           #14.9
..LN478:
	.loc    1  13  is_stmt 1
        addq      $4, %r8                                       #13.5
..LN479:
        cmpq      %rcx, %r8                                     #13.5
..LN480:
        jb        ..B3.13       # Prob 99%                      #13.5
..LN481:
        jmp       ..B3.18       # Prob 100%                     #13.5
..LN482:
                                # LOE rdx rcx rbx rbp rsi rdi r8 r12 r13 r14 r15
..B3.16:                        # Preds ..B3.11 ..B3.16
                                # Execution count [5.00e+05]
..L138:
                # optimization report
                # MULTIVERSIONED FOR DATA DEPENDENCE, VER 1
                # LOOP WAS VECTORIZED
                # VECTORIZATION HAS UNALIGNED MEMORY REFERENCES
                # VECTORIZATION SPEEDUP COEFFECIENT 5.335938
                # VECTOR TRIP COUNT IS KNOWN CONSTANT
                # VECTOR LENGTH 4
                # NORMALIZED VECTORIZATION OVERHEAD 2.750000
                # MAIN VECTOR TYPE: 32-bits floating point
                # DEPENDENCY ANALYSIS WAS IGNORED
..LN483:
	.loc    1  14  is_stmt 1
        movups    (%rdi,%r8,4), %xmm0                           #14.16
..LN484:
        addps     (%rsi,%r8,4), %xmm0                           #14.23
..LN485:
        movups    %xmm0, (%rdx,%r8,4)                           #14.9
..LN486:
	.loc    1  13  is_stmt 1
        addq      $4, %r8                                       #13.5
..LN487:
        cmpq      %rcx, %r8                                     #13.5
..LN488:
        jb        ..B3.16       # Prob 99%                      #13.5
..LN489:
                                # LOE rdx rcx rbx rbp rsi rdi r8 r12 r13 r14 r15
..B3.18:                        # Preds ..B3.16 ..B3.13 ..B3.23
                                # Execution count [0.00e+00]
..LN490:
        cmpq      $50000000, %rcx                               #13.5
..LN491:
        jb        ..B3.25       # Prob 0%                       #13.5
..LN492:
        jmp       ..B3.22       # Prob 100%                     #13.5
..LN493:
                                # LOE rdx rcx rbx rbp rsi rdi r12 r13 r14 r15
..B3.19:                        # Preds ..B3.4 ..B3.2
                                # Execution count [1.25e+03]
..LN494:
        xorl      %eax, %eax                                    #13.5
..LN495:
                                # LOE rax rdx rbx rbp rsi rdi r12 r13 r14 r15
..B3.20:                        # Preds ..B3.20 ..B3.19
                                # Execution count [2.50e+05]
..L139:
                # optimization report
                # MULTIVERSIONED FOR DATA DEPENDENCE, VER 2
                # LOOP WAS UNROLLED BY 2
                # %s was not vectorized: non-vectorizable loop instance from multiversioning
                # VECTOR TRIP COUNT IS KNOWN CONSTANT
..LN496:
	.loc    1  14  is_stmt 1
        movss     (%rdi,%rax,8), %xmm0                          #14.16
..LN497:
        addss     (%rsi,%rax,8), %xmm0                          #14.23
..LN498:
        movss     %xmm0, (%rdx,%rax,8)                          #14.9
..LN499:
        movss     4(%rdi,%rax,8), %xmm1                         #14.16
..LN500:
        addss     4(%rsi,%rax,8), %xmm1                         #14.23
..LN501:
        movss     %xmm1, 4(%rdx,%rax,8)                         #14.9
..LN502:
	.loc    1  13  is_stmt 1
        incq      %rax                                          #13.5
..LN503:
        cmpq      $25000000, %rax                               #13.5
..LN504:
        jb        ..B3.20       # Prob 99%                      #13.5
..LN505:
                                # LOE rax rdx rbx rbp rsi rdi r12 r13 r14 r15
..B3.22:                        # Preds ..B3.25 ..B3.20 ..B3.18
                                # Execution count [0.00e+00]
..LN506:
	.loc    1  16  epilogue_begin  is_stmt 1
        ret                                                     #16.1
..LN507:
                                # LOE
..B3.23:                        # Preds ..B3.6
                                # Execution count [0.00e+00]: Infreq
..LN508:
	.loc    1  13  is_stmt 1
        xorl      %ecx, %ecx                                    #13.5
..LN509:
        jmp       ..B3.18       # Prob 100%                     #13.5
..LN510:
                                # LOE rdx rcx rbx rbp rsi rdi r12 r13 r14 r15
..B3.25:                        # Preds ..B3.18 ..B3.25
                                # Execution count [5.00e+05]: Infreq
..L141:
                # optimization report
                # MULTIVERSIONED FOR DATA DEPENDENCE, VER 1
                # REMAINDER LOOP FOR VECTORIZATION
..LN511:
	.loc    1  14  is_stmt 1
        movss     (%rdi,%rcx,4), %xmm0                          #14.16
..LN512:
        addss     (%rsi,%rcx,4), %xmm0                          #14.23
..LN513:
        movss     %xmm0, (%rdx,%rcx,4)                          #14.9
..LN514:
	.loc    1  13  is_stmt 1
        incq      %rcx                                          #13.5
..LN515:
        cmpq      $50000000, %rcx                               #13.5
..LN516:
        jb        ..B3.25       # Prob 99%                      #13.5
..LN517:
        jmp       ..B3.22       # Prob 100%                     #13.5
        .align    16,0x90
..LN518:
                                # LOE rdx rcx rbx rbp rsi rdi r12 r13 r14 r15
..LN519:
	.cfi_endproc
# mark_end;
	.type	_Z10simpleLoopPfS_S_,@function
	.size	_Z10simpleLoopPfS_S_,.-_Z10simpleLoopPfS_S_
..LN_Z10simpleLoopPfS_S_.520:
.LN_Z10simpleLoopPfS_S_:
	.data
# -- End  _Z10simpleLoopPfS_S_
	.text
.L_2__routine_start__Z11complexLoopPfS_S__3:
# -- Begin  _Z11complexLoopPfS_S_
	.text
# mark_begin;
       .align    16,0x90
	.globl _Z11complexLoopPfS_S_
# --- complexLoop(float *, float *, float *)
_Z11complexLoopPfS_S_:
# parameter 1(a): %rdi
# parameter 2(b): %rsi
# parameter 3(c): %rdx
..B4.1:                         # Preds ..B4.0
                                # Execution count [0.00e+00]
	.cfi_startproc
	.cfi_personality 0x3,__gxx_personality_v0
..___tag_value__Z11complexLoopPfS_S_.145:
..L146:
                                                        #19.48
..LN521:
	.loc    1  19  prologue_end  is_stmt 1
..LN522:
	.loc    1  21  is_stmt 1
        movq      %rdx, %rax                                    #21.16
..LN523:
        subq      %rdi, %rax                                    #21.16
..LN524:
	.loc    1  20  is_stmt 1
        cmpq      $200000000, %rax                              #20.5
..LN525:
        jge       ..B4.3        # Prob 50%                      #20.5
..LN526:
                                # LOE rax rdx rbx rbp rsi rdi r12 r13 r14 r15
..B4.2:                         # Preds ..B4.1
                                # Execution count [0.00e+00]
..LN527:
	.loc    1  21  is_stmt 1
        negq      %rax                                          #21.9
..LN528:
	.loc    1  20  is_stmt 1
        cmpq      $200000000, %rax                              #20.5
..LN529:
        jl        ..B4.19       # Prob 50%                      #20.5
..LN530:
                                # LOE rdx rbx rbp rsi rdi r12 r13 r14 r15
..B4.3:                         # Preds ..B4.2 ..B4.1
                                # Execution count [0.00e+00]
..LN531:
	.loc    1  21  is_stmt 1
        movq      %rdx, %rax                                    #21.23
..LN532:
        subq      %rsi, %rax                                    #21.23
..LN533:
	.loc    1  20  is_stmt 1
        cmpq      $200000000, %rax                              #20.5
..LN534:
        jge       ..B4.5        # Prob 50%                      #20.5
..LN535:
                                # LOE rax rdx rbx rbp rsi rdi r12 r13 r14 r15
..B4.4:                         # Preds ..B4.3
                                # Execution count [0.00e+00]
..LN536:
	.loc    1  21  is_stmt 1
        negq      %rax                                          #21.9
..LN537:
	.loc    1  20  is_stmt 1
        cmpq      $200000000, %rax                              #20.5
..LN538:
        jl        ..B4.19       # Prob 50%                      #20.5
..LN539:
                                # LOE rdx rbx rbp rsi rdi r12 r13 r14 r15
..B4.5:                         # Preds ..B4.3 ..B4.4
                                # Execution count [0.00e+00]
..LN540:
        movq      %rdx, %rcx                                    #20.5
..LN541:
        andq      $15, %rcx                                     #20.5
..LN542:
        testl     %ecx, %ecx                                    #20.5
..LN543:
        je        ..B4.10       # Prob 50%                      #20.5
..LN544:
                                # LOE rdx rbx rbp rsi rdi r12 r13 r14 r15 ecx
..B4.6:                         # Preds ..B4.5
                                # Execution count [0.00e+00]
..LN545:
        testb     $3, %cl                                       #20.5
..LN546:
        jne       ..B4.23       # Prob 10%                      #20.5
..LN547:
                                # LOE rdx rbx rbp rsi rdi r12 r13 r14 r15 ecx
..B4.7:                         # Preds ..B4.6
                                # Execution count [2.50e+03]
..LN548:
        negl      %ecx                                          #20.5
..LN549:
        xorl      %eax, %eax                                    #20.5
..LN550:
        addl      $16, %ecx                                     #20.5
..LN551:
        shrl      $2, %ecx                                      #20.5
..LN552:
        movl      %ecx, %r8d                                    #20.5
..LN553:
                                # LOE rax rdx rbx rbp rsi rdi r8 r12 r13 r14 r15 ecx
..B4.8:                         # Preds ..B4.8 ..B4.7
                                # Execution count [5.00e+05]
..L148:
                # optimization report
                # MULTIVERSIONED FOR DATA DEPENDENCE, VER 1
                # PEELED LOOP FOR VECTORIZATION
..LN554:
	.loc    1  21  is_stmt 1
        movss     (%rdi,%rax,4), %xmm0                          #21.16
..LN555:
        movss     (%rsi,%rax,4), %xmm1                          #21.23
..LN556:
        mulss     %xmm0, %xmm1                                  #21.23
..LN557:
        addss     %xmm0, %xmm1                                  #21.30
..LN558:
        movss     %xmm1, (%rdx,%rax,4)                          #21.9
..LN559:
	.loc    1  20  is_stmt 1
        incq      %rax                                          #20.5
..LN560:
        cmpq      %r8, %rax                                     #20.5
..LN561:
        jb        ..B4.8        # Prob 99%                      #20.5
..LN562:
        jmp       ..B4.11       # Prob 100%                     #20.5
..LN563:
                                # LOE rax rdx rbx rbp rsi rdi r8 r12 r13 r14 r15 ecx
..B4.10:                        # Preds ..B4.5
                                # Execution count [0.00e+00]
..LN564:
	.loc    1  21  is_stmt 1
        xorl      %r8d, %r8d                                    #21.9
..LN565:
                                # LOE rdx rbx rbp rsi rdi r8 r12 r13 r14 r15 ecx
..B4.11:                        # Preds ..B4.8 ..B4.10
                                # Execution count [5.00e+05]
..LN566:
	.loc    1  20  is_stmt 1
        negl      %ecx                                          #20.5
..LN567:
	.loc    1  21  is_stmt 1
        lea       (%rdi,%r8,4), %rax                            #21.30
..LN568:
	.loc    1  20  is_stmt 1
        andl      $3, %ecx                                      #20.5
..LN569:
        negl      %ecx                                          #20.5
..LN570:
        addl      $50000000, %ecx                               #20.5
..LN571:
        testq     $15, %rax                                     #20.5
..LN572:
        je        ..B4.16       # Prob 60%                      #20.5
..LN573:
                                # LOE rdx rcx rbx rbp rsi rdi r8 r12 r13 r14 r15
..B4.12:                        # Preds ..B4.11
                                # Execution count [2.50e+03]
..LN574:
        movl      %ecx, %ecx                                    #20.5
..LN575:
                                # LOE rdx rcx rbx rbp rsi rdi r8 r12 r13 r14 r15
..B4.13:                        # Preds ..B4.13 ..B4.12
                                # Execution count [5.00e+05]
..L149:
                # optimization report
                # MULTIVERSIONED FOR DATA DEPENDENCE, VER 1
                # LOOP WAS VECTORIZED
                # VECTORIZATION SPEEDUP COEFFECIENT 4.890625
                # ALTERNATE ALIGNMENT VECTOR LOOP
                # VECTOR TRIP COUNT IS KNOWN CONSTANT
                # VECTOR LENGTH 4
                # NORMALIZED VECTORIZATION OVERHEAD 1.875000
                # DEPENDENCY ANALYSIS WAS IGNORED
..LN576:
	.loc    1  21  is_stmt 1
        movups    (%rdi,%r8,4), %xmm0                           #21.16
..LN577:
        movups    (%rsi,%r8,4), %xmm1                           #21.23
..LN578:
        mulps     %xmm0, %xmm1                                  #21.23
..LN579:
        addps     %xmm0, %xmm1                                  #21.30
..LN580:
        movups    %xmm1, (%rdx,%r8,4)                           #21.9
..LN581:
	.loc    1  20  is_stmt 1
        addq      $4, %r8                                       #20.5
..LN582:
        cmpq      %rcx, %r8                                     #20.5
..LN583:
        jb        ..B4.13       # Prob 99%                      #20.5
..LN584:
        jmp       ..B4.18       # Prob 100%                     #20.5
..LN585:
                                # LOE rdx rcx rbx rbp rsi rdi r8 r12 r13 r14 r15
..B4.16:                        # Preds ..B4.11 ..B4.16
                                # Execution count [5.00e+05]
..L150:
                # optimization report
                # MULTIVERSIONED FOR DATA DEPENDENCE, VER 1
                # LOOP WAS VECTORIZED
                # VECTORIZATION HAS UNALIGNED MEMORY REFERENCES
                # VECTORIZATION SPEEDUP COEFFECIENT 4.890625
                # VECTOR TRIP COUNT IS KNOWN CONSTANT
                # VECTOR LENGTH 4
                # NORMALIZED VECTORIZATION OVERHEAD 1.875000
                # MAIN VECTOR TYPE: 32-bits floating point
                # DEPENDENCY ANALYSIS WAS IGNORED
..LN586:
	.loc    1  21  is_stmt 1
        movups    (%rsi,%r8,4), %xmm1                           #21.23
..LN587:
        movups    (%rdi,%r8,4), %xmm0                           #21.16
..LN588:
        mulps     %xmm0, %xmm1                                  #21.23
..LN589:
        addps     %xmm0, %xmm1                                  #21.30
..LN590:
        movups    %xmm1, (%rdx,%r8,4)                           #21.9
..LN591:
	.loc    1  20  is_stmt 1
        addq      $4, %r8                                       #20.5
..LN592:
        cmpq      %rcx, %r8                                     #20.5
..LN593:
        jb        ..B4.16       # Prob 99%                      #20.5
..LN594:
                                # LOE rdx rcx rbx rbp rsi rdi r8 r12 r13 r14 r15
..B4.18:                        # Preds ..B4.16 ..B4.13 ..B4.23
                                # Execution count [0.00e+00]
..LN595:
        cmpq      $50000000, %rcx                               #20.5
..LN596:
        jb        ..B4.25       # Prob 0%                       #20.5
..LN597:
        jmp       ..B4.22       # Prob 100%                     #20.5
..LN598:
                                # LOE rdx rcx rbx rbp rsi rdi r12 r13 r14 r15
..B4.19:                        # Preds ..B4.4 ..B4.2
                                # Execution count [1.25e+03]
..LN599:
        xorl      %eax, %eax                                    #20.5
..LN600:
                                # LOE rax rdx rbx rbp rsi rdi r12 r13 r14 r15
..B4.20:                        # Preds ..B4.20 ..B4.19
                                # Execution count [2.50e+05]
..L151:
                # optimization report
                # MULTIVERSIONED FOR DATA DEPENDENCE, VER 2
                # LOOP WAS UNROLLED BY 2
                # %s was not vectorized: non-vectorizable loop instance from multiversioning
                # VECTOR TRIP COUNT IS KNOWN CONSTANT
..LN601:
	.loc    1  21  is_stmt 1
        movss     (%rdi,%rax,8), %xmm0                          #21.16
..LN602:
        movss     (%rsi,%rax,8), %xmm1                          #21.23
..LN603:
        mulss     %xmm0, %xmm1                                  #21.23
..LN604:
        addss     %xmm0, %xmm1                                  #21.30
..LN605:
        movss     %xmm1, (%rdx,%rax,8)                          #21.9
..LN606:
        movss     4(%rdi,%rax,8), %xmm2                         #21.16
..LN607:
        movss     4(%rsi,%rax,8), %xmm3                         #21.23
..LN608:
        mulss     %xmm2, %xmm3                                  #21.23
..LN609:
        addss     %xmm2, %xmm3                                  #21.30
..LN610:
        movss     %xmm3, 4(%rdx,%rax,8)                         #21.9
..LN611:
	.loc    1  20  is_stmt 1
        incq      %rax                                          #20.5
..LN612:
        cmpq      $25000000, %rax                               #20.5
..LN613:
        jb        ..B4.20       # Prob 99%                      #20.5
..LN614:
                                # LOE rax rdx rbx rbp rsi rdi r12 r13 r14 r15
..B4.22:                        # Preds ..B4.25 ..B4.20 ..B4.18
                                # Execution count [0.00e+00]
..LN615:
	.loc    1  23  epilogue_begin  is_stmt 1
        ret                                                     #23.1
..LN616:
                                # LOE
..B4.23:                        # Preds ..B4.6
                                # Execution count [0.00e+00]: Infreq
..LN617:
	.loc    1  20  is_stmt 1
        xorl      %ecx, %ecx                                    #20.5
..LN618:
        jmp       ..B4.18       # Prob 100%                     #20.5
..LN619:
                                # LOE rdx rcx rbx rbp rsi rdi r12 r13 r14 r15
..B4.25:                        # Preds ..B4.18 ..B4.25
                                # Execution count [5.00e+05]: Infreq
..L153:
                # optimization report
                # MULTIVERSIONED FOR DATA DEPENDENCE, VER 1
                # REMAINDER LOOP FOR VECTORIZATION
..LN620:
	.loc    1  21  is_stmt 1
        movss     (%rdi,%rcx,4), %xmm0                          #21.16
..LN621:
        movss     (%rsi,%rcx,4), %xmm1                          #21.23
..LN622:
        mulss     %xmm0, %xmm1                                  #21.23
..LN623:
        addss     %xmm0, %xmm1                                  #21.30
..LN624:
        movss     %xmm1, (%rdx,%rcx,4)                          #21.9
..LN625:
	.loc    1  20  is_stmt 1
        incq      %rcx                                          #20.5
..LN626:
        cmpq      $50000000, %rcx                               #20.5
..LN627:
        jb        ..B4.25       # Prob 99%                      #20.5
..LN628:
        jmp       ..B4.22       # Prob 100%                     #20.5
        .align    16,0x90
..LN629:
                                # LOE rdx rcx rbx rbp rsi rdi r12 r13 r14 r15
..LN630:
	.cfi_endproc
# mark_end;
	.type	_Z11complexLoopPfS_S_,@function
	.size	_Z11complexLoopPfS_S_,.-_Z11complexLoopPfS_S_
..LN_Z11complexLoopPfS_S_.631:
.LN_Z11complexLoopPfS_S_:
	.data
# -- End  _Z11complexLoopPfS_S_
	.text
.L_2__routine_start__Z14complexLoopTwoPiP4Data_4:
# -- Begin  _Z14complexLoopTwoPiP4Data
	.text
# mark_begin;
       .align    16,0x90
	.globl _Z14complexLoopTwoPiP4Data
# --- complexLoopTwo(int *, Data *)
_Z14complexLoopTwoPiP4Data:
# parameter 1(d): %rdi
# parameter 2(data): %rsi
..B5.1:                         # Preds ..B5.0
                                # Execution count [1.00e+00]
	.cfi_startproc
	.cfi_personality 0x3,__gxx_personality_v0
..___tag_value__Z14complexLoopTwoPiP4Data.157:
..L158:
                                                        #26.48
..LN632:
	.loc    1  26  prologue_end  is_stmt 1
..LN633:
	.loc    1  27  is_stmt 1
        xorl      %eax, %eax                                    #27.16
..LN634:
        cmpl      $0, (%rsi)                                    #27.25
..LN635:
        jle       ..B5.6        # Prob 10%                      #27.25
..LN636:
                                # LOE rax rbx rbp rsi rdi r12 r13 r14 r15
..B5.3:                         # Preds ..B5.1 ..B5.4
                                # Execution count [2.62e+00]
..L160:
                # optimization report
                # %s was not vectorized: loop control variable %s was found, but loop iteration count cannot be computed before executing the loop%s
..LN637:
..LN638:
	.loc    1  28  is_stmt 1
        movl      %eax, %edx                                    #28.9
..LN639:
        addl      (%rdi), %edx                                  #28.9
..LN640:
        movl      %edx, (%rdi)                                  #28.9
..LN641:
	.loc    1  29  is_stmt 1
        cmpl      $9999987, %edx                                #29.16
..LN642:
        je        ..B5.6        # Prob 20%                      #29.16
..LN643:
                                # LOE rax rbx rbp rsi rdi r12 r13 r14 r15
..B5.4:                         # Preds ..B5.3
                                # Execution count [2.09e+00]
..LN644:
	.loc    1  27  is_stmt 1
        incq      %rax                                          #27.37
..LN645:
        addq      $4, %rdi                                      #27.37
..LN646:
        movslq    (%rsi), %rdx                                  #27.25
..LN647:
        cmpq      %rdx, %rax                                    #27.25
..LN648:
        jl        ..B5.3        # Prob 82%                      #27.25
..LN649:
                                # LOE rax rbx rbp rsi rdi r12 r13 r14 r15
..B5.6:                         # Preds ..B5.3 ..B5.4 ..B5.1
                                # Execution count [1.00e+00]
..LN650:
	.loc    1  31  epilogue_begin  is_stmt 1
        ret                                                     #31.1
        .align    16,0x90
..LN651:
                                # LOE
..LN652:
	.cfi_endproc
# mark_end;
	.type	_Z14complexLoopTwoPiP4Data,@function
	.size	_Z14complexLoopTwoPiP4Data,.-_Z14complexLoopTwoPiP4Data
..LN_Z14complexLoopTwoPiP4Data.653:
.LN_Z14complexLoopTwoPiP4Data:
	.data
# -- End  _Z14complexLoopTwoPiP4Data
	.section .text._ZNSt6chrono13duration_castINS_8durationIdSt5ratioILl1ELl1EEEElS2_ILl1ELl1000000000EEEENSt9enable_ifIXsr3std6chrono13__is_durationIT_EE5valueES7_E4typeERKNS1_IT0_T1_EE, "xaG",@progbits,_ZNSt6chrono13duration_castINS_8durationIdSt5ratioILl1ELl1EEEElS2_ILl1ELl1000000000EEEENSt9enable_ifIXsr3std6chrono13__is_durationIT_EE5valueES7_E4typeERKNS1_IT0_T1_EE,comdat
..TXTST2:
.L_2__routine_start__ZNSt6chrono13duration_castINS_8durationIdSt5ratioILl1ELl1EEEElS2_ILl1ELl1000000000EEEENSt9enable_ifIXsr3std6chrono13__is_durationIT_EE5valueES7_E4typeERKNS1_IT0_T1_EE_5:
# -- Begin  _ZNSt6chrono13duration_castINS_8durationIdSt5ratioILl1ELl1EEEElS2_ILl1ELl1000000000EEEENSt9enable_ifIXsr3std6chrono13__is_durationIT_EE5valueES7_E4typeERKNS1_IT0_T1_EE
	.section .text._ZNSt6chrono13duration_castINS_8durationIdSt5ratioILl1ELl1EEEElS2_ILl1ELl1000000000EEEENSt9enable_ifIXsr3std6chrono13__is_durationIT_EE5valueES7_E4typeERKNS1_IT0_T1_EE, "xaG",@progbits,_ZNSt6chrono13duration_castINS_8durationIdSt5ratioILl1ELl1EEEElS2_ILl1ELl1000000000EEEENSt9enable_ifIXsr3std6chrono13__is_durationIT_EE5valueES7_E4typeERKNS1_IT0_T1_EE,comdat
# mark_begin;
       .align    16,0x90
	.weak _ZNSt6chrono13duration_castINS_8durationIdSt5ratioILl1ELl1EEEElS2_ILl1ELl1000000000EEEENSt9enable_ifIXsr3std6chrono13__is_durationIT_EE5valueES7_E4typeERKNS1_IT0_T1_EE
# --- std::chrono::duration_cast<std::chrono::duration<double, std::ratio<1L, 1L>>, int64_t, std::nano>(const std::chrono::duration<int64_t, std::nano> &)
_ZNSt6chrono13duration_castINS_8durationIdSt5ratioILl1ELl1EEEElS2_ILl1ELl1000000000EEEENSt9enable_ifIXsr3std6chrono13__is_durationIT_EE5valueES7_E4typeERKNS1_IT0_T1_EE:
# parameter 1(__d): %rdi
..B6.1:                         # Preds ..B6.0
                                # Execution count [1.00e+00]
	.cfi_startproc
	.cfi_personality 0x3,__gxx_personality_v0
..___tag_value__ZNSt6chrono13duration_castINS_8durationIdSt5ratioILl1ELl1EEEElS2_ILl1ELl1000000000EEEENSt9enable_ifIXsr3std6chrono13__is_durationIT_EE5valueES7_E4typeERKNS1_IT0_T1_EE.165:
..L166:
                                                        #195.7
..LN654:
	.loc    2  195  prologue_end  is_stmt 1
..LN655:
	.loc    2  163  is_stmt 1
        pxor      %xmm0, %xmm0                                  #163.29
..LN656:
        cvtsi2sdq (%rdi), %xmm0                                 #163.29
..LN657:
        divsd     .L_2il0floatpacket.4(%rip), %xmm0             #163.40
..LN658:
	.loc    2  203  epilogue_begin  is_stmt 1
        ret                                                     #203.2
        .align    16,0x90
..LN659:
                                # LOE
..LN660:
	.cfi_endproc
# mark_end;
	.type	_ZNSt6chrono13duration_castINS_8durationIdSt5ratioILl1ELl1EEEElS2_ILl1ELl1000000000EEEENSt9enable_ifIXsr3std6chrono13__is_durationIT_EE5valueES7_E4typeERKNS1_IT0_T1_EE,@function
	.size	_ZNSt6chrono13duration_castINS_8durationIdSt5ratioILl1ELl1EEEElS2_ILl1ELl1000000000EEEENSt9enable_ifIXsr3std6chrono13__is_durationIT_EE5valueES7_E4typeERKNS1_IT0_T1_EE,.-_ZNSt6chrono13duration_castINS_8durationIdSt5ratioILl1ELl1EEEElS2_ILl1ELl1000000000EEEENSt9enable_ifIXsr3std6chrono13__is_durationIT_EE5valueES7_E4typeERKNS1_IT0_T1_EE
..LN_ZNSt6chrono13duration_castINS_8durationIdSt5ratioILl1ELl1EEEElS2_ILl1ELl1000000000EEEENSt9enable_ifIXsr3std6chrono13__is_durationIT_EE5valueES7_E4typeERKNS1_IT0_T1_EE.661:
.LN_ZNSt6chrono13duration_castINS_8durationIdSt5ratioILl1ELl1EEEElS2_ILl1ELl1000000000EEEENSt9enable_ifIXsr3std6chrono13__is_durationIT_EE5valueES7_E4typeERKNS1_IT0_T1_EE:
	.data
# -- End  _ZNSt6chrono13duration_castINS_8durationIdSt5ratioILl1ELl1EEEElS2_ILl1ELl1000000000EEEENSt9enable_ifIXsr3std6chrono13__is_durationIT_EE5valueES7_E4typeERKNS1_IT0_T1_EE
	.text
.L_2__routine_start___sti__$E_6:
# -- Begin  __sti__$E
	.text
# mark_begin;
       .align    16,0x90
# --- __sti__$E()
__sti__$E:
..B7.1:                         # Preds ..B7.0
                                # Execution count [1.00e+00]
	.cfi_startproc
	.cfi_personality 0x3,__gxx_personality_v0
..___tag_value___sti__$E.172:
..L173:
                                                        #
..LN662:
        pushq     %rsi                                          #
	.cfi_def_cfa_offset 16
..LN663:
	.file   20 "/usr/include/c++/7.5.0/iostream"
	.loc    20  74  prologue_end  is_stmt 1
        movl      $_ZN17_INTERNAL87d52accSt8__ioinitE, %edi     #74.25
..___tag_value___sti__$E.176:
..LN664:
#       std::ios_base::Init::Init(std::ios_base::Init *)
        call      _ZNSt8ios_base4InitC1Ev                       #74.25
..___tag_value___sti__$E.177:
..LN665:
                                # LOE rbx rbp r12 r13 r14 r15
..B7.2:                         # Preds ..B7.1
                                # Execution count [1.00e+00]
..LN666:
        movl      $_ZNSt8ios_base4InitD1Ev, %edi                #74.25
..LN667:
        movl      $_ZN17_INTERNAL87d52accSt8__ioinitE, %esi     #74.25
..LN668:
        movl      $__dso_handle, %edx                           #74.25
..LN669:
	.loc    20  74  epilogue_begin  is_stmt 1
        addq      $8, %rsp                                      #74.25
	.cfi_def_cfa_offset 8
..LN670:
#       __cxa_atexit(void (*)(void *), void *, void *)
        jmp       __cxa_atexit                                  #74.25
        .align    16,0x90
..LN671:
                                # LOE
..LN672:
	.cfi_endproc
# mark_end;
	.type	__sti__$E,@function
	.size	__sti__$E,.-__sti__$E
..LN__sti__$E.673:
.LN__sti__$E:
	.data
# -- End  __sti__$E
	.bss
	.align 4
	.align 1
_ZN17_INTERNAL87d52accSt8__ioinitE:
	.type	_ZN17_INTERNAL87d52accSt8__ioinitE,@object
	.size	_ZN17_INTERNAL87d52accSt8__ioinitE,1
	.space 1	# pad
	.section .rodata, "a"
	.align 16
	.align 16
.L_2il0floatpacket.2:
	.long	0x3f800000,0x3f800000,0x3f800000,0x3f800000
	.type	.L_2il0floatpacket.2,@object
	.size	.L_2il0floatpacket.2,16
	.align 16
.L_2il0floatpacket.3:
	.long	0x40000000,0x40000000,0x40000000,0x40000000
	.type	.L_2il0floatpacket.3,@object
	.size	.L_2il0floatpacket.3,16
	.align 8
.L_2il0floatpacket.4:
	.long	0x00000000,0x41cdcd65
	.type	.L_2il0floatpacket.4,@object
	.size	.L_2il0floatpacket.4,8
	.align 4
.L_2il0floatpacket.1:
	.long	0x40000000
	.type	.L_2il0floatpacket.1,@object
	.size	.L_2il0floatpacket.1,4
	.align 4
.L_2il0floatpacket.5:
	.long	0x3f800000
	.type	.L_2il0floatpacket.5,@object
	.size	.L_2il0floatpacket.5,4
	.section .rodata.str1.4, "aMS",@progbits,1
	.align 4
	.align 4
.L_2__STRING.0:
	.long	1886218579
	.long	1277191532
	.long	544239471
	.long	1634891076
	.long	1852795252
	.word	8250
	.byte	0
	.type	.L_2__STRING.0,@object
	.size	.L_2__STRING.0,23
	.space 1, 0x00 	# pad
	.align 4
.L_2__STRING.1:
	.long	1667592992
	.long	1935961711
	.word	10
	.type	.L_2__STRING.1,@object
	.size	.L_2__STRING.1,10
	.space 2, 0x00 	# pad
	.align 4
.L_2__STRING.2:
	.long	1886220099
	.long	544761196
	.long	1886351180
	.long	1920287776
	.long	1869182049
	.long	2112110
	.type	.L_2__STRING.2,@object
	.size	.L_2__STRING.2,24
	.section .data._ZNSt14numeric_limitsIcE9is_signedE, "waG",@progbits,_ZNSt14numeric_limitsIcE9is_signedE,comdat
	.align 1
	.weak _ZNSt14numeric_limitsIcE9is_signedE
_ZNSt14numeric_limitsIcE9is_signedE:
	.type	_ZNSt14numeric_limitsIcE9is_signedE,@object
	.size	_ZNSt14numeric_limitsIcE9is_signedE,1
	.byte	1
	.section .data._ZNSt14numeric_limitsIwE9is_signedE, "waG",@progbits,_ZNSt14numeric_limitsIwE9is_signedE,comdat
	.align 1
	.weak _ZNSt14numeric_limitsIwE9is_signedE
_ZNSt14numeric_limitsIwE9is_signedE:
	.type	_ZNSt14numeric_limitsIwE9is_signedE,@object
	.size	_ZNSt14numeric_limitsIwE9is_signedE,1
	.byte	1
	.section .data._ZNSt14numeric_limitsIDsE9is_signedE, "waG",@progbits,_ZNSt14numeric_limitsIDsE9is_signedE,comdat
	.align 1
	.weak _ZNSt14numeric_limitsIDsE9is_signedE
_ZNSt14numeric_limitsIDsE9is_signedE:
	.type	_ZNSt14numeric_limitsIDsE9is_signedE,@object
	.size	_ZNSt14numeric_limitsIDsE9is_signedE,1
	.byte	0
	.section .data._ZNSt14numeric_limitsIDiE9is_signedE, "waG",@progbits,_ZNSt14numeric_limitsIDiE9is_signedE,comdat
	.align 1
	.weak _ZNSt14numeric_limitsIDiE9is_signedE
_ZNSt14numeric_limitsIDiE9is_signedE:
	.type	_ZNSt14numeric_limitsIDiE9is_signedE,@object
	.size	_ZNSt14numeric_limitsIDiE9is_signedE,1
	.byte	0
	.section .data._ZNSt14numeric_limitsIfE12has_infinityE, "waG",@progbits,_ZNSt14numeric_limitsIfE12has_infinityE,comdat
	.align 1
	.weak _ZNSt14numeric_limitsIfE12has_infinityE
_ZNSt14numeric_limitsIfE12has_infinityE:
	.type	_ZNSt14numeric_limitsIfE12has_infinityE,@object
	.size	_ZNSt14numeric_limitsIfE12has_infinityE,1
	.byte	1
	.section .data._ZNSt14numeric_limitsIfE13has_quiet_NaNE, "waG",@progbits,_ZNSt14numeric_limitsIfE13has_quiet_NaNE,comdat
	.align 1
	.weak _ZNSt14numeric_limitsIfE13has_quiet_NaNE
_ZNSt14numeric_limitsIfE13has_quiet_NaNE:
	.type	_ZNSt14numeric_limitsIfE13has_quiet_NaNE,@object
	.size	_ZNSt14numeric_limitsIfE13has_quiet_NaNE,1
	.byte	1
	.section .data._ZNSt14numeric_limitsIfE10has_denormE, "waG",@progbits,_ZNSt14numeric_limitsIfE10has_denormE,comdat
	.align 4
	.weak _ZNSt14numeric_limitsIfE10has_denormE
_ZNSt14numeric_limitsIfE10has_denormE:
	.type	_ZNSt14numeric_limitsIfE10has_denormE,@object
	.size	_ZNSt14numeric_limitsIfE10has_denormE,4
	.long	1
	.section .data._ZNSt14numeric_limitsIdE12has_infinityE, "waG",@progbits,_ZNSt14numeric_limitsIdE12has_infinityE,comdat
	.align 1
	.weak _ZNSt14numeric_limitsIdE12has_infinityE
_ZNSt14numeric_limitsIdE12has_infinityE:
	.type	_ZNSt14numeric_limitsIdE12has_infinityE,@object
	.size	_ZNSt14numeric_limitsIdE12has_infinityE,1
	.byte	1
	.section .data._ZNSt14numeric_limitsIdE13has_quiet_NaNE, "waG",@progbits,_ZNSt14numeric_limitsIdE13has_quiet_NaNE,comdat
	.align 1
	.weak _ZNSt14numeric_limitsIdE13has_quiet_NaNE
_ZNSt14numeric_limitsIdE13has_quiet_NaNE:
	.type	_ZNSt14numeric_limitsIdE13has_quiet_NaNE,@object
	.size	_ZNSt14numeric_limitsIdE13has_quiet_NaNE,1
	.byte	1
	.section .data._ZNSt14numeric_limitsIdE10has_denormE, "waG",@progbits,_ZNSt14numeric_limitsIdE10has_denormE,comdat
	.align 4
	.weak _ZNSt14numeric_limitsIdE10has_denormE
_ZNSt14numeric_limitsIdE10has_denormE:
	.type	_ZNSt14numeric_limitsIdE10has_denormE,@object
	.size	_ZNSt14numeric_limitsIdE10has_denormE,4
	.long	1
	.section .data._ZNSt14numeric_limitsIeE12has_infinityE, "waG",@progbits,_ZNSt14numeric_limitsIeE12has_infinityE,comdat
	.align 1
	.weak _ZNSt14numeric_limitsIeE12has_infinityE
_ZNSt14numeric_limitsIeE12has_infinityE:
	.type	_ZNSt14numeric_limitsIeE12has_infinityE,@object
	.size	_ZNSt14numeric_limitsIeE12has_infinityE,1
	.byte	1
	.section .data._ZNSt14numeric_limitsIeE13has_quiet_NaNE, "waG",@progbits,_ZNSt14numeric_limitsIeE13has_quiet_NaNE,comdat
	.align 1
	.weak _ZNSt14numeric_limitsIeE13has_quiet_NaNE
_ZNSt14numeric_limitsIeE13has_quiet_NaNE:
	.type	_ZNSt14numeric_limitsIeE13has_quiet_NaNE,@object
	.size	_ZNSt14numeric_limitsIeE13has_quiet_NaNE,1
	.byte	1
	.section .data._ZNSt14numeric_limitsIeE10has_denormE, "waG",@progbits,_ZNSt14numeric_limitsIeE10has_denormE,comdat
	.align 4
	.weak _ZNSt14numeric_limitsIeE10has_denormE
_ZNSt14numeric_limitsIeE10has_denormE:
	.type	_ZNSt14numeric_limitsIeE10has_denormE,@object
	.size	_ZNSt14numeric_limitsIeE10has_denormE,4
	.long	1
	.section .ctors, "wa"
	.align 8
__init_0:
	.type	__init_0,@object
	.size	__init_0,8
	.quad	__sti__$E
	.data
	.hidden __dso_handle
# mark_proc_addr_taken __sti__$E;
	.set _ZNSt6chrono13duration_castINS_8durationIdSt5ratioILl1ELl1EEEElS2_ILl1ELl1000000000EEEENSt9enable_ifIXsrNS_13__is_durationIT_EE5valueES8_E4typeERKNS1_IT0_T1_EE,_ZNSt6chrono13duration_castINS_8durationIdSt5ratioILl1ELl1EEEElS2_ILl1ELl1000000000EEEENSt9enable_ifIXsr3std6chrono13__is_durationIT_EE5valueES7_E4typeERKNS1_IT0_T1_EE
	.section .debug_opt_report, ""
..L182:
	.ascii ".itt_notify_tab\0"
	.word	258
	.word	48
	.long	25
	.long	..L183 - ..L182
	.long	48
	.long	..L184 - ..L182
	.long	379
	.long	0x00000008,0x00000000
	.long	0
	.long	0
	.long	0
	.long	1
	.quad	..L22
	.long	28
	.long	5
	.quad	..L24
	.long	28
	.long	17
	.quad	..L25
	.long	28
	.long	36
	.quad	..L40
	.long	28
	.long	55
	.quad	..L43
	.long	28
	.long	67
	.quad	..L44
	.long	28
	.long	86
	.quad	..L59
	.long	28
	.long	105
	.quad	..L62
	.long	28
	.long	117
	.quad	..L63
	.long	28
	.long	136
	.quad	..L111
	.long	28
	.long	155
	.quad	..L112
	.long	28
	.long	171
	.quad	..L113
	.long	28
	.long	183
	.quad	..L114
	.long	28
	.long	195
	.quad	..L136
	.long	28
	.long	207
	.quad	..L137
	.long	28
	.long	219
	.quad	..L138
	.long	28
	.long	238
	.quad	..L139
	.long	28
	.long	257
	.quad	..L141
	.long	28
	.long	274
	.quad	..L148
	.long	28
	.long	286
	.quad	..L149
	.long	28
	.long	298
	.quad	..L150
	.long	28
	.long	317
	.quad	..L151
	.long	28
	.long	336
	.quad	..L153
	.long	28
	.long	353
	.quad	..L160
	.long	28
	.long	365
..L183:
	.long	1769238639
	.long	1635412333
	.long	1852795252
	.long	1885696607
	.long	1601466991
	.long	1936876918
	.long	7237481
	.long	1769238639
	.long	1635412333
	.long	1852795252
	.long	1885696607
	.long	7631471
..L184:
	.long	-2045771008
	.long	-2146432254
	.long	-2139062144
	.long	-2139062144
	.long	-2146430460
	.long	-2139062144
	.long	-2139062144
	.long	-1065320318
	.long	44008872
	.long	-2139090926
	.long	-2139062144
	.long	-2105507712
	.long	-2000650110
	.long	184721285
	.long	-2139062256
	.long	-2139062144
	.long	302284928
	.long	-2139062256
	.long	-2139062144
	.long	-2138931072
	.long	-441920080
	.long	269615776
	.long	-2139062144
	.long	-2139062144
	.long	-1333624192
	.long	-1595569963
	.long	-2146432254
	.long	-2139062144
	.long	-2139062144
	.long	-2146430460
	.long	-2139062144
	.long	-2139062144
	.long	-828342142
	.long	44033448
	.long	-2139090926
	.long	-2139062144
	.long	-2105507712
	.long	-1999724414
	.long	251830245
	.long	-2139062256
	.long	-2139062144
	.long	-260013952
	.long	188776582
	.long	-2139062256
	.long	-2139062144
	.long	185106560
	.long	-2139062256
	.long	-2139062144
	.long	185106560
	.long	-2139062256
	.long	-2139062144
	.long	185106560
	.long	-2004844528
	.long	-2139062143
	.long	302284928
	.long	-2004844528
	.long	-2139062143
	.long	-2138931072
	.long	-441920080
	.long	269617824
	.long	-2121760640
	.long	-2139062144
	.long	-1333624192
	.long	-1595569963
	.long	-2146430966
	.long	-2138929024
	.long	-2139062139
	.long	-2139058048
	.long	269156736
	.long	-2121760640
	.long	-2139062144
	.long	269158528
	.long	-2121760640
	.long	-2139062144
	.long	269616256
	.long	-2121760640
	.long	-2139062144
	.long	-1602190720
	.long	-1612338994
	.long	-2146430454
	.long	-2138994560
	.long	-2139062144
	.long	-828341630
	.long	178251144
	.long	-2139090928
	.long	-2055175544
	.long	-2139062144
	.long	-2139062128
	.long	-2146432255
	.long	-2138994560
	.long	-2139062144
	.long	-2146431736
	.long	-2139062144
	.long	-2139062144
	.word	64640
	.byte	6
	.section .note.GNU-stack, ""
	.file   21 "/usr/include/c++/7.5.0/bits/ios_base.h"
	.file   22 "/usr/include/c++/7.5.0/ostream"
	.file   23 "/usr/include/c++/7.5.0/bits/stl_pair.h"
	.file   24 "/usr/include/c++/7.5.0/iosfwd"
	.file   25 "/usr/include/x86_64-linux-gnu/c++/7.5.0/bits/atomic_word.h"
	.file   26 "/usr/include/x86_64-linux-gnu/bits/types/wint_t.h"
	.file   27 "/opt/intel/oneapi/compiler/2022.0.1/linux/bin/intel64/../../compiler/include/icc/stddef.h"
	.file   28 "/usr/include/wchar.h"
	.file   29 "/usr/include/x86_64-linux-gnu/bits/stdint-uintn.h"
	.file   30 "/usr/include/locale.h"
	.file   31 "/usr/include/stdlib.h"
	.file   32 "/usr/include/x86_64-linux-gnu/bits/types/FILE.h"
	.file   33 "/usr/include/x86_64-linux-gnu/bits/libio.h"
	.file   34 "/usr/include/stdio.h"
	.file   35 "/usr/include/x86_64-linux-gnu/bits/_G_config.h"
	.file   36 "/usr/include/wctype.h"
	.file   37 "/usr/include/x86_64-linux-gnu/bits/wctype-wchar.h"
	.file   38 "/usr/include/x86_64-linux-gnu/bits/types/clock_t.h"
	.file   39 "/usr/include/x86_64-linux-gnu/bits/types/struct_tm.h"
	.file   40 "/usr/include/c++/7.5.0/limits"
// -- Begin DWARF2 SEGMENT .debug_info
	.section .text
.LNDBG_TXe:
# End
